; Listing generated by Microsoft (R) Optimizing Compiler Version 19.27.29112.0 

include listing.inc

INCLUDELIB MSVCRTD
INCLUDELIB OLDNAMES

PUBLIC	?minutesPerHour@@3HA				; minutesPerHour
PUBLIC	?m@@3HA						; m
msvcjmc	SEGMENT
__8906660C_vcruntime_new@h DB 01H
__741AE07E_corecrt_math@h DB 01H
__B49664B7_stdlib@h DB 01H
__F8119FB4_cstdlib DB 01H
__0A4FAB91_cmath DB 01H
__A2143F22_corecrt_stdio_config@h DB 01H
__829E1958_corecrt_wstdio@h DB 01H
__6DFAE8B8_stdio@h DB 01H
__1FEB9909_corecrt_memcpy_s@h DB 01H
__A751F051_corecrt_memory@h DB 01H
__9200769A_corecrt_wstring@h DB 01H
__32E5F013_string@h DB 01H
__C6E16F6F_corecrt_wconio@h DB 01H
__6D390390_corecrt_wio@h DB 01H
__1157D6BA_corecrt_wtime@h DB 01H
__1DC1E279_stat@h DB 01H
__93DC0B45_wchar@h DB 01H
__85A9AA98_type_traits DB 01H
__4324C6B3_xutility DB 01H
__20BB4341_malloc@h DB 01H
__E75714E4_vcruntime_exception@h DB 01H
__E4152856_exception DB 01H
__F2870A2C_limits DB 01H
__A58979FC_xmemory DB 01H
__D15AFF60_xstring DB 01H
__6D5B120B_stdexcept DB 01H
__160863A3_xcall_once@h DB 01H
__99B256EE_atomic DB 01H
__A9557183_system_error DB 01H
__FB364CBD_vcruntime_typeinfo@h DB 01H
__33FB35AA_typeinfo DB 01H
__4E2906A2_memory DB 01H
__626C51AD_xfacet DB 01H
__B2D2BA86_ctype@h DB 01H
__2C72D662_xlocinfo DB 01H
__0E648B51_xlocale DB 01H
__1597A171_xiosbase DB 01H
__90E3ED46_xlocnum DB 01H
__165C22CB_ios DB 01H
__2DA40AF6_line_printing@cpp DB 01H
__7EA464AF_istream DB 01H
__1D745195_ostream DB 01H
__6FFBAAB7_streambuf DB 01H
__528871F3_iterator DB 01H
__3E6EDFAA_iosfwd DB 01H
__CF1C1A3F_utility DB 01H
__38038D2D_xstddef DB 01H
__EE19A480_xatomic@h DB 01H
msvcjmc	ENDS
_DATA	SEGMENT
?minutesPerHour@@3HA DD 03cH				; minutesPerHour
?m@@3HA	DD	03cH					; m
_DATA	ENDS
PUBLIC	?__empty_global_delete@@YAXPEAX@Z		; __empty_global_delete
PUBLIC	?__empty_global_delete@@YAXPEAX_K@Z		; __empty_global_delete
PUBLIC	??2@YAPEAX_KPEAX@Z				; operator new
PUBLIC	??0exception@std@@QEAA@QEBDH@Z			; std::exception::exception
PUBLIC	??0exception@std@@QEAA@AEBV01@@Z		; std::exception::exception
PUBLIC	??1exception@std@@UEAA@XZ			; std::exception::~exception
PUBLIC	?what@exception@std@@UEBAPEBDXZ			; std::exception::what
PUBLIC	??_Gexception@std@@UEAAPEAXI@Z			; std::exception::`scalar deleting destructor'
PUBLIC	??0bad_alloc@std@@AEAA@QEBD@Z			; std::bad_alloc::bad_alloc
PUBLIC	??1bad_alloc@std@@UEAA@XZ			; std::bad_alloc::~bad_alloc
PUBLIC	??0bad_alloc@std@@QEAA@AEBV01@@Z		; std::bad_alloc::bad_alloc
PUBLIC	??_Gbad_alloc@std@@UEAAPEAXI@Z			; std::bad_alloc::`scalar deleting destructor'
PUBLIC	??0bad_array_new_length@std@@QEAA@XZ		; std::bad_array_new_length::bad_array_new_length
PUBLIC	??1bad_array_new_length@std@@UEAA@XZ		; std::bad_array_new_length::~bad_array_new_length
PUBLIC	??0bad_array_new_length@std@@QEAA@AEBV01@@Z	; std::bad_array_new_length::bad_array_new_length
PUBLIC	??_Gbad_array_new_length@std@@UEAAPEAXI@Z	; std::bad_array_new_length::`scalar deleting destructor'
PUBLIC	?_Throw_bad_array_new_length@std@@YAXXZ		; std::_Throw_bad_array_new_length
PUBLIC	?max@?$numeric_limits@_J@std@@SA_JXZ		; std::numeric_limits<__int64>::max
PUBLIC	?_Allocate@_Default_allocate_traits@std@@SAPEAX_K@Z ; std::_Default_allocate_traits::_Allocate
PUBLIC	?_Adjust_manually_vector_aligned@std@@YAXAEAPEAXAEA_K@Z ; std::_Adjust_manually_vector_aligned
PUBLIC	??$_Convert_size@_K@std@@YA_K_K@Z		; std::_Convert_size<unsigned __int64>
PUBLIC	??0_Container_proxy@std@@QEAA@PEAU_Container_base12@1@@Z ; std::_Container_proxy::_Container_proxy
PUBLIC	??0_Container_base12@std@@QEAA@XZ		; std::_Container_base12::_Container_base12
PUBLIC	?_Orphan_all@_Container_base12@std@@QEAAXXZ	; std::_Container_base12::_Orphan_all
PUBLIC	?_Release@_Basic_container_proxy_ptr12@std@@QEAAXXZ ; std::_Basic_container_proxy_ptr12::_Release
PUBLIC	??$addressof@U_Container_base12@std@@@std@@YAPEAU_Container_base12@0@AEAU10@@Z ; std::addressof<std::_Container_base12>
PUBLIC	??$_Construct_in_place@U_Container_proxy@std@@PEAU_Container_base12@2@@std@@YAXAEAU_Container_proxy@0@$$QEAPEAU_Container_base12@0@@Z ; std::_Construct_in_place<std::_Container_proxy,std::_Container_base12 *>
PUBLIC	?length@?$_Narrow_char_traits@DH@std@@SA_KQEBD@Z ; std::_Narrow_char_traits<char,int>::length
PUBLIC	?copy@?$_Narrow_char_traits@DH@std@@SAPEADQEADQEBD_K@Z ; std::_Narrow_char_traits<char,int>::copy
PUBLIC	?move@?$_Narrow_char_traits@DH@std@@SAPEADQEADQEBD_K@Z ; std::_Narrow_char_traits<char,int>::move
PUBLIC	?assign@?$_Narrow_char_traits@DH@std@@SAXAEADAEBD@Z ; std::_Narrow_char_traits<char,int>::assign
PUBLIC	?eq_int_type@?$_Narrow_char_traits@DH@std@@SA_NAEBH0@Z ; std::_Narrow_char_traits<char,int>::eq_int_type
PUBLIC	?eof@?$_Narrow_char_traits@DH@std@@SAHXZ	; std::_Narrow_char_traits<char,int>::eof
PUBLIC	?_Xlen_string@std@@YAXXZ			; std::_Xlen_string
PUBLIC	??0?$allocator@D@std@@QEAA@XZ			; std::allocator<char>::allocator<char>
PUBLIC	?deallocate@?$allocator@D@std@@QEAAXQEAD_K@Z	; std::allocator<char>::deallocate
PUBLIC	?allocate@?$allocator@D@std@@QEAAPEAD_K@Z	; std::allocator<char>::allocate
PUBLIC	?max_size@?$_Default_allocator_traits@V?$allocator@D@std@@@std@@SA_KAEBV?$allocator@D@2@@Z ; std::_Default_allocator_traits<std::allocator<char> >::max_size
PUBLIC	??0?$_String_val@U?$_Simple_types@D@std@@@std@@QEAA@XZ ; std::_String_val<std::_Simple_types<char> >::_String_val<std::_Simple_types<char> >
PUBLIC	?_Myptr@?$_String_val@U?$_Simple_types@D@std@@@std@@QEAAPEADXZ ; std::_String_val<std::_Simple_types<char> >::_Myptr
PUBLIC	?_Large_string_engaged@?$_String_val@U?$_Simple_types@D@std@@@std@@QEBA_NXZ ; std::_String_val<std::_Simple_types<char> >::_Large_string_engaged
PUBLIC	??0_Bxty@?$_String_val@U?$_Simple_types@D@std@@@std@@QEAA@XZ ; std::_String_val<std::_Simple_types<char> >::_Bxty::_Bxty
PUBLIC	??1_Bxty@?$_String_val@U?$_Simple_types@D@std@@@std@@QEAA@XZ ; std::_String_val<std::_Simple_types<char> >::_Bxty::~_Bxty
PUBLIC	??1?$_String_val@U?$_Simple_types@D@std@@@std@@QEAA@XZ ; std::_String_val<std::_Simple_types<char> >::~_String_val<std::_Simple_types<char> >
PUBLIC	??0?$basic_string@DU?$char_traits@D@std@@V?$allocator@D@2@@std@@QEAA@QEBD@Z ; std::basic_string<char,std::char_traits<char>,std::allocator<char> >::basic_string<char,std::char_traits<char>,std::allocator<char> >
PUBLIC	??1?$basic_string@DU?$char_traits@D@std@@V?$allocator@D@2@@std@@QEAA@XZ ; std::basic_string<char,std::char_traits<char>,std::allocator<char> >::~basic_string<char,std::char_traits<char>,std::allocator<char> >
PUBLIC	?assign@?$basic_string@DU?$char_traits@D@std@@V?$allocator@D@2@@std@@QEAAAEAV12@QEBD_K@Z ; std::basic_string<char,std::char_traits<char>,std::allocator<char> >::assign
PUBLIC	?assign@?$basic_string@DU?$char_traits@D@std@@V?$allocator@D@2@@std@@QEAAAEAV12@QEBD@Z ; std::basic_string<char,std::char_traits<char>,std::allocator<char> >::assign
PUBLIC	?max_size@?$basic_string@DU?$char_traits@D@std@@V?$allocator@D@2@@std@@QEBA_KXZ ; std::basic_string<char,std::char_traits<char>,std::allocator<char> >::max_size
PUBLIC	?_Calculate_growth@?$basic_string@DU?$char_traits@D@std@@V?$allocator@D@2@@std@@CA_K_K00@Z ; std::basic_string<char,std::char_traits<char>,std::allocator<char> >::_Calculate_growth
PUBLIC	?_Calculate_growth@?$basic_string@DU?$char_traits@D@std@@V?$allocator@D@2@@std@@AEBA_K_K@Z ; std::basic_string<char,std::char_traits<char>,std::allocator<char> >::_Calculate_growth
PUBLIC	?_Tidy_init@?$basic_string@DU?$char_traits@D@std@@V?$allocator@D@2@@std@@AEAAXXZ ; std::basic_string<char,std::char_traits<char>,std::allocator<char> >::_Tidy_init
PUBLIC	?_Tidy_deallocate@?$basic_string@DU?$char_traits@D@std@@V?$allocator@D@2@@std@@AEAAXXZ ; std::basic_string<char,std::char_traits<char>,std::allocator<char> >::_Tidy_deallocate
PUBLIC	?_Getal@?$basic_string@DU?$char_traits@D@std@@V?$allocator@D@2@@std@@AEAAAEAV?$allocator@D@2@XZ ; std::basic_string<char,std::char_traits<char>,std::allocator<char> >::_Getal
PUBLIC	?_Getal@?$basic_string@DU?$char_traits@D@std@@V?$allocator@D@2@@std@@AEBAAEBV?$allocator@D@2@XZ ; std::basic_string<char,std::char_traits<char>,std::allocator<char> >::_Getal
PUBLIC	?_Get_first@?$_Compressed_pair@V?$allocator@D@std@@V?$_String_val@U?$_Simple_types@D@std@@@2@$00@std@@QEAAAEAV?$allocator@D@2@XZ ; std::_Compressed_pair<std::allocator<char>,std::_String_val<std::_Simple_types<char> >,1>::_Get_first
PUBLIC	?_Get_first@?$_Compressed_pair@V?$allocator@D@std@@V?$_String_val@U?$_Simple_types@D@std@@@2@$00@std@@QEBAAEBV?$allocator@D@2@XZ ; std::_Compressed_pair<std::allocator<char>,std::_String_val<std::_Simple_types<char> >,1>::_Get_first
PUBLIC	??1?$_Compressed_pair@V?$allocator@D@std@@V?$_String_val@U?$_Simple_types@D@std@@@2@$00@std@@QEAA@XZ ; std::_Compressed_pair<std::allocator<char>,std::_String_val<std::_Simple_types<char> >,1>::~_Compressed_pair<std::allocator<char>,std::_String_val<std::_Simple_types<char> >,1>
PUBLIC	?demomain@@YAHXZ				; demomain
PUBLIC	?calc@@YAHXZ					; calc
PUBLIC	??$?6U?$char_traits@D@std@@@std@@YAAEAV?$basic_ostream@DU?$char_traits@D@std@@@0@AEAV10@PEBD@Z ; std::operator<<<std::char_traits<char> >
PUBLIC	?inout@@YAHXZ					; inout
PUBLIC	?notmain@@YAHXZ					; notmain
PUBLIC	main
PUBLIC	??$endl@DU?$char_traits@D@std@@@std@@YAAEAV?$basic_ostream@DU?$char_traits@D@std@@@0@AEAV10@@Z ; std::endl<char,std::char_traits<char> >
PUBLIC	??0_Sentry_base@?$basic_ostream@DU?$char_traits@D@std@@@std@@QEAA@AEAV12@@Z ; std::basic_ostream<char,std::char_traits<char> >::_Sentry_base::_Sentry_base
PUBLIC	??1_Sentry_base@?$basic_ostream@DU?$char_traits@D@std@@@std@@QEAA@XZ ; std::basic_ostream<char,std::char_traits<char> >::_Sentry_base::~_Sentry_base
PUBLIC	??0sentry@?$basic_ostream@DU?$char_traits@D@std@@@std@@QEAA@AEAV12@@Z ; std::basic_ostream<char,std::char_traits<char> >::sentry::sentry
PUBLIC	??1sentry@?$basic_ostream@DU?$char_traits@D@std@@@std@@QEAA@XZ ; std::basic_ostream<char,std::char_traits<char> >::sentry::~sentry
PUBLIC	??Bsentry@?$basic_ostream@DU?$char_traits@D@std@@@std@@QEBA_NXZ ; std::basic_ostream<char,std::char_traits<char> >::sentry::operator bool
PUBLIC	??$min@_K@std@@YAAEB_KAEB_K0@Z			; std::min<unsigned __int64>
PUBLIC	?allocate@?$allocator@U_Container_proxy@std@@@std@@QEAAPEAU_Container_proxy@2@_K@Z ; std::allocator<std::_Container_proxy>::allocate
PUBLIC	??$_Delete_plain_internal@V?$allocator@U_Container_proxy@std@@@std@@@std@@YAXAEAV?$allocator@U_Container_proxy@std@@@0@QEAU_Container_proxy@0@@Z ; std::_Delete_plain_internal<std::allocator<std::_Container_proxy> >
PUBLIC	??0?$_Container_proxy_ptr12@V?$allocator@U_Container_proxy@std@@@std@@@std@@QEAA@AEAV?$allocator@U_Container_proxy@std@@@1@AEAU_Container_base12@1@@Z ; std::_Container_proxy_ptr12<std::allocator<std::_Container_proxy> >::_Container_proxy_ptr12<std::allocator<std::_Container_proxy> >
PUBLIC	??1?$_Container_proxy_ptr12@V?$allocator@U_Container_proxy@std@@@std@@@std@@QEAA@XZ ; std::_Container_proxy_ptr12<std::allocator<std::_Container_proxy> >::~_Container_proxy_ptr12<std::allocator<std::_Container_proxy> >
PUBLIC	??$?0D@?$allocator@U_Container_proxy@std@@@std@@QEAA@AEBV?$allocator@D@1@@Z ; std::allocator<std::_Container_proxy>::allocator<std::_Container_proxy><char>
PUBLIC	??$?0$$V@?$_Compressed_pair@V?$allocator@D@std@@V?$_String_val@U?$_Simple_types@D@std@@@2@$00@std@@QEAA@U_Zero_then_variadic_args_t@1@@Z ; std::_Compressed_pair<std::allocator<char>,std::_String_val<std::_Simple_types<char> >,1>::_Compressed_pair<std::allocator<char>,std::_String_val<std::_Simple_types<char> >,1><>
PUBLIC	??$_Unfancy@U_Container_proxy@std@@@std@@YAPEAU_Container_proxy@0@PEAU10@@Z ; std::_Unfancy<std::_Container_proxy>
PUBLIC	??$_Destroy_in_place@PEAD@std@@YAXAEAPEAD@Z	; std::_Destroy_in_place<char *>
PUBLIC	??R<lambda_66f57f934f28d61049862f64df852ff0>@@QEBAXQEAD_KQEBD@Z ; <lambda_66f57f934f28d61049862f64df852ff0>::operator()
PUBLIC	??$_Reallocate_for@V<lambda_66f57f934f28d61049862f64df852ff0>@@PEBD@?$basic_string@DU?$char_traits@D@std@@V?$allocator@D@2@@std@@AEAAAEAV01@_KV<lambda_66f57f934f28d61049862f64df852ff0>@@PEBD@Z ; std::basic_string<char,std::char_traits<char>,std::allocator<char> >::_Reallocate_for<<lambda_66f57f934f28d61049862f64df852ff0>,char const *>
PUBLIC	??$_Construct_in_place@PEADAEBQEAD@std@@YAXAEAPEADAEBQEAD@Z ; std::_Construct_in_place<char *,char * const &>
PUBLIC	??$_Unfancy@D@std@@YAPEADPEAD@Z			; std::_Unfancy<char>
PUBLIC	??$max@_K@std@@YAAEB_KAEB_K0@Z			; std::max<unsigned __int64>
PUBLIC	??$_Get_size_of_n@$0BA@@std@@YA_K_K@Z		; std::_Get_size_of_n<16>
PUBLIC	??$_Allocate@$0BA@U_Default_allocate_traits@std@@$0A@@std@@YAPEAX_K@Z ; std::_Allocate<16,std::_Default_allocate_traits,0>
PUBLIC	??$_Deallocate@$0BA@$0A@@std@@YAXPEAX_K@Z	; std::_Deallocate<16,0>
PUBLIC	??$_Get_size_of_n@$00@std@@YA_K_K@Z		; std::_Get_size_of_n<1>
PUBLIC	??$addressof@U_Container_proxy@std@@@std@@YAPEAU_Container_proxy@0@AEAU10@@Z ; std::addressof<std::_Container_proxy>
PUBLIC	??$forward@PEAU_Container_base12@std@@@std@@YA$$QEAPEAU_Container_base12@0@AEAPEAU10@@Z ; std::forward<std::_Container_base12 *>
PUBLIC	??$_Deallocate_plain@V?$allocator@U_Container_proxy@std@@@std@@@std@@YAXAEAV?$allocator@U_Container_proxy@std@@@0@QEAU_Container_proxy@0@@Z ; std::_Deallocate_plain<std::allocator<std::_Container_proxy> >
PUBLIC	??$addressof@PEAD@std@@YAPEAPEADAEAPEAD@Z	; std::addressof<char *>
PUBLIC	??$forward@AEBQEAD@std@@YAAEBQEADAEBQEAD@Z	; std::forward<char * const &>
PUBLIC	??$_Allocate_manually_vector_aligned@U_Default_allocate_traits@std@@@std@@YAPEAX_K@Z ; std::_Allocate_manually_vector_aligned<std::_Default_allocate_traits>
PUBLIC	?deallocate@?$_Default_allocator_traits@V?$allocator@U_Container_proxy@std@@@std@@@std@@SAXAEAV?$allocator@U_Container_proxy@std@@@2@QEAU_Container_proxy@2@_K@Z ; std::_Default_allocator_traits<std::allocator<std::_Container_proxy> >::deallocate
PUBLIC	__JustMyCode_Default
PUBLIC	??_7exception@std@@6B@				; std::exception::`vftable'
PUBLIC	??_C@_0BC@EOODALEL@Unknown?5exception@		; `string'
PUBLIC	??_7bad_alloc@std@@6B@				; std::bad_alloc::`vftable'
PUBLIC	??_7bad_array_new_length@std@@6B@		; std::bad_array_new_length::`vftable'
PUBLIC	??_C@_0BF@KINCDENJ@bad?5array?5new?5length@	; `string'
PUBLIC	_TI3?AVbad_array_new_length@std@@
PUBLIC	_CTA3?AVbad_array_new_length@std@@
PUBLIC	??_R0?AVbad_array_new_length@std@@@8		; std::bad_array_new_length `RTTI Type Descriptor'
PUBLIC	_CT??_R0?AVbad_array_new_length@std@@@8??0bad_array_new_length@std@@QEAA@AEBV01@@Z24
PUBLIC	??_R0?AVbad_alloc@std@@@8			; std::bad_alloc `RTTI Type Descriptor'
PUBLIC	_CT??_R0?AVbad_alloc@std@@@8??0bad_alloc@std@@QEAA@AEBV01@@Z24
PUBLIC	??_R0?AVexception@std@@@8			; std::exception `RTTI Type Descriptor'
PUBLIC	_CT??_R0?AVexception@std@@@8??0exception@std@@QEAA@AEBV01@@Z24
PUBLIC	?__LINE__Var@?0??_Adjust_manually_vector_aligned@std@@YAXAEAPEAXAEA_K@Z@4JA ; `std::_Adjust_manually_vector_aligned'::`1'::__LINE__Var
PUBLIC	??_C@_0BB@FCMFBGOM@invalid?5argument@		; `string'
PUBLIC	??_C@_02DKCKIIND@?$CFs@				; `string'
PUBLIC	??_C@_0GI@JMEOMKJO@C?3?2Program?5Files?5?$CIx86?$CJ?2Microsof@ ; `string'
PUBLIC	??_C@_1NA@FEEOBALC@?$AAC?$AA?3?$AA?2?$AAP?$AAr?$AAo?$AAg?$AAr?$AAa?$AAm?$AA?5?$AAF?$AAi?$AAl?$AAe@ ; `string'
PUBLIC	??_C@_1EK@NIFDJFDG@?$AAs?$AAt?$AAd?$AA?3?$AA?3?$AA_?$AAA?$AAd?$AAj?$AAu?$AAs?$AAt?$AA_?$AAm?$AAa@ ; `string'
PUBLIC	??_C@_1CG@JNLFBNGN@?$AA?$CC?$AAi?$AAn?$AAv?$AAa?$AAl?$AAi?$AAd?$AA?5?$AAa?$AAr?$AAg?$AAu?$AAm?$AAe@ ; `string'
PUBLIC	??_C@_0BA@JFNIOLAK@string?5too?5long@		; `string'
PUBLIC	??_C@_0BA@LDFHCECK@Type?5a?5number?3?5@		; `string'
PUBLIC	??_C@_0BG@MLJOIFMK@Type?5another?5number?3?5@	; `string'
PUBLIC	??_C@_08KIEHPKP@Sum?5is?3?5@			; `string'
PUBLIC	??_C@_0BB@IKKEJHJF@Your?5number?5is?3?5@	; `string'
PUBLIC	??_C@_0M@KIBDPGDE@Hello?5world@			; `string'
PUBLIC	??_C@_0BC@MIJPDIEH@I?5am?5learning?5C?$CL?$CL@	; `string'
PUBLIC	??_C@_0BL@FEAEPCOP@Hello?5world?5on?5a?5new?5line?6@ ; `string'
PUBLIC	??_C@_0BD@BCJPKDIB@I?5am?5learning?5C?$CL?$CL?6@ ; `string'
PUBLIC	??_C@_0BE@GAECMEJP@I?5am?5learning?5C?$CL?$CL?6?6@ ; `string'
PUBLIC	??_C@_0BG@KLNHFDLK@Great?5day?5ain?8t?5it?$DP?6?6@ ; `string'
PUBLIC	??_C@_0BK@FKMNAKKG@Weather?5kind?5of?5sucks?5no?$DP@ ; `string'
PUBLIC	??_C@_0BP@GICJMLGF@Just?5kidding?5it?8s?5a?5hot?5day?$CB?6?6@ ; `string'
PUBLIC	??_C@_05COLMCDPH@Hello@				; `string'
PUBLIC	??_C@_0N@CIOKKJFG@?5Years?5old?6?6@		; `string'
PUBLIC	??_C@_05PBLKMGEL@I?5am?5@			; `string'
PUBLIC	??_C@_1EO@GFNCMDLA@?$AAs?$AAt?$AAd?$AA?3?$AA?3?$AA_?$AAA?$AAl?$AAl?$AAo?$AAc?$AAa?$AAt?$AAe?$AA_@ ; `string'
PUBLIC	??_R4exception@std@@6B@				; std::exception::`RTTI Complete Object Locator'
PUBLIC	??_R3exception@std@@8				; std::exception::`RTTI Class Hierarchy Descriptor'
PUBLIC	??_R2exception@std@@8				; std::exception::`RTTI Base Class Array'
PUBLIC	??_R1A@?0A@EA@exception@std@@8			; std::exception::`RTTI Base Class Descriptor at (0,-1,0,64)'
PUBLIC	??_R4bad_alloc@std@@6B@				; std::bad_alloc::`RTTI Complete Object Locator'
PUBLIC	??_R3bad_alloc@std@@8				; std::bad_alloc::`RTTI Class Hierarchy Descriptor'
PUBLIC	??_R2bad_alloc@std@@8				; std::bad_alloc::`RTTI Base Class Array'
PUBLIC	??_R1A@?0A@EA@bad_alloc@std@@8			; std::bad_alloc::`RTTI Base Class Descriptor at (0,-1,0,64)'
PUBLIC	??_R4bad_array_new_length@std@@6B@		; std::bad_array_new_length::`RTTI Complete Object Locator'
PUBLIC	??_R3bad_array_new_length@std@@8		; std::bad_array_new_length::`RTTI Class Hierarchy Descriptor'
PUBLIC	??_R2bad_array_new_length@std@@8		; std::bad_array_new_length::`RTTI Base Class Array'
PUBLIC	??_R1A@?0A@EA@bad_array_new_length@std@@8	; std::bad_array_new_length::`RTTI Base Class Descriptor at (0,-1,0,64)'
PUBLIC	__real@4017f5c28f5c28f6
EXTRN	??2@YAPEAX_K@Z:PROC				; operator new
EXTRN	??3@YAXPEAX_K@Z:PROC				; operator delete
EXTRN	__imp__invalid_parameter:PROC
EXTRN	__imp__CrtDbgReport:PROC
EXTRN	__imp_??0_Lockit@std@@QEAA@H@Z:PROC
EXTRN	__imp_??1_Lockit@std@@QEAA@XZ:PROC
EXTRN	memcpy:PROC
EXTRN	memmove:PROC
EXTRN	strlen:PROC
EXTRN	?_Xlength_error@std@@YAXPEBD@Z:PROC		; std::_Xlength_error
EXTRN	?uncaught_exception@std@@YA_NXZ:PROC		; std::uncaught_exception
EXTRN	__std_exception_copy:PROC
EXTRN	__std_exception_destroy:PROC
EXTRN	??_Eexception@std@@UEAAPEAXI@Z:PROC		; std::exception::`vector deleting destructor'
EXTRN	??_Ebad_alloc@std@@UEAAPEAXI@Z:PROC		; std::bad_alloc::`vector deleting destructor'
EXTRN	??_Ebad_array_new_length@std@@UEAAPEAXI@Z:PROC	; std::bad_array_new_length::`vector deleting destructor'
EXTRN	__imp_?good@ios_base@std@@QEBA_NXZ:PROC
EXTRN	__imp_?flags@ios_base@std@@QEBAHXZ:PROC
EXTRN	__imp_?width@ios_base@std@@QEBA_JXZ:PROC
EXTRN	__imp_?width@ios_base@std@@QEAA_J_J@Z:PROC
EXTRN	__imp_?sputc@?$basic_streambuf@DU?$char_traits@D@std@@@std@@QEAAHD@Z:PROC
EXTRN	__imp_?sputn@?$basic_streambuf@DU?$char_traits@D@std@@@std@@QEAA_JPEBD_J@Z:PROC
EXTRN	__imp_?setstate@?$basic_ios@DU?$char_traits@D@std@@@std@@QEAAXH_N@Z:PROC
EXTRN	__imp_?tie@?$basic_ios@DU?$char_traits@D@std@@@std@@QEBAPEAV?$basic_ostream@DU?$char_traits@D@std@@@2@XZ:PROC
EXTRN	__imp_?rdbuf@?$basic_ios@DU?$char_traits@D@std@@@std@@QEBAPEAV?$basic_streambuf@DU?$char_traits@D@std@@@2@XZ:PROC
EXTRN	__imp_?fill@?$basic_ios@DU?$char_traits@D@std@@@std@@QEBADXZ:PROC
EXTRN	__imp_?widen@?$basic_ios@DU?$char_traits@D@std@@@std@@QEBADD@Z:PROC
EXTRN	__imp_?_Osfx@?$basic_ostream@DU?$char_traits@D@std@@@std@@QEAAXXZ:PROC
EXTRN	__imp_??6?$basic_ostream@DU?$char_traits@D@std@@@std@@QEAAAEAV01@P6AAEAV01@AEAV01@@Z@Z:PROC
EXTRN	__imp_??6?$basic_ostream@DU?$char_traits@D@std@@@std@@QEAAAEAV01@H@Z:PROC
EXTRN	__imp_?put@?$basic_ostream@DU?$char_traits@D@std@@@std@@QEAAAEAV12@D@Z:PROC
EXTRN	__imp_?flush@?$basic_ostream@DU?$char_traits@D@std@@@std@@QEAAAEAV12@XZ:PROC
EXTRN	__imp_??5?$basic_istream@DU?$char_traits@D@std@@@std@@QEAAAEAV01@AEAH@Z:PROC
EXTRN	_CxxThrowException:PROC
EXTRN	_RTC_CheckStackVars:PROC
EXTRN	_RTC_InitBase:PROC
EXTRN	_RTC_Shutdown:PROC
EXTRN	__CheckForDebuggerJustMyCode:PROC
EXTRN	__CxxFrameHandler4:PROC
EXTRN	__GSHandlerCheck:PROC
EXTRN	__GSHandlerCheck_EH4:PROC
EXTRN	__security_check_cookie:PROC
EXTRN	??_7type_info@@6B@:BYTE				; type_info::`vftable'
EXTRN	__imp_?cin@std@@3V?$basic_istream@DU?$char_traits@D@std@@@1@A:BYTE
EXTRN	__imp_?cout@std@@3V?$basic_ostream@DU?$char_traits@D@std@@@1@A:BYTE
EXTRN	__security_cookie:QWORD
EXTRN	_fltused:DWORD
;	COMDAT pdata
pdata	SEGMENT
$pdata$?__empty_global_delete@@YAXPEAX@Z DD imagerel $LN3
	DD	imagerel $LN3+64
	DD	imagerel $unwind$?__empty_global_delete@@YAXPEAX@Z
pdata	ENDS
;	COMDAT pdata
pdata	SEGMENT
$pdata$?__empty_global_delete@@YAXPEAX_K@Z DD imagerel $LN3
	DD	imagerel $LN3+69
	DD	imagerel $unwind$?__empty_global_delete@@YAXPEAX_K@Z
pdata	ENDS
;	COMDAT pdata
pdata	SEGMENT
$pdata$??2@YAPEAX_KPEAX@Z DD imagerel $LN3
	DD	imagerel $LN3+76
	DD	imagerel $unwind$??2@YAPEAX_KPEAX@Z
pdata	ENDS
;	COMDAT pdata
pdata	SEGMENT
$pdata$??0exception@std@@QEAA@QEBDH@Z DD imagerel $LN3
	DD	imagerel $LN3+139
	DD	imagerel $unwind$??0exception@std@@QEAA@QEBDH@Z
pdata	ENDS
;	COMDAT pdata
pdata	SEGMENT
$pdata$??0exception@std@@QEAA@AEBV01@@Z DD imagerel $LN3
	DD	imagerel $LN3+146
	DD	imagerel $unwind$??0exception@std@@QEAA@AEBV01@@Z
pdata	ENDS
;	COMDAT pdata
pdata	SEGMENT
$pdata$??1exception@std@@UEAA@XZ DD imagerel $LN3
	DD	imagerel $LN3+101
	DD	imagerel $unwind$??1exception@std@@UEAA@XZ
pdata	ENDS
;	COMDAT pdata
pdata	SEGMENT
$pdata$?what@exception@std@@UEBAPEBDXZ DD imagerel $LN5
	DD	imagerel $LN5+119
	DD	imagerel $unwind$?what@exception@std@@UEBAPEBDXZ
pdata	ENDS
;	COMDAT pdata
pdata	SEGMENT
$pdata$??_Gexception@std@@UEAAPEAXI@Z DD imagerel $LN4
	DD	imagerel $LN4+105
	DD	imagerel $unwind$??_Gexception@std@@UEAAPEAXI@Z
pdata	ENDS
;	COMDAT pdata
pdata	SEGMENT
$pdata$??0bad_alloc@std@@AEAA@QEBD@Z DD imagerel $LN3
	DD	imagerel $LN3+118
	DD	imagerel $unwind$??0bad_alloc@std@@AEAA@QEBD@Z
pdata	ENDS
;	COMDAT pdata
pdata	SEGMENT
$pdata$??1bad_alloc@std@@UEAA@XZ DD imagerel $LN3
	DD	imagerel $LN3+64
	DD	imagerel $unwind$??1bad_alloc@std@@UEAA@XZ
pdata	ENDS
;	COMDAT pdata
pdata	SEGMENT
$pdata$??0bad_alloc@std@@QEAA@AEBV01@@Z DD imagerel $LN3
	DD	imagerel $LN3+100
	DD	imagerel $unwind$??0bad_alloc@std@@QEAA@AEBV01@@Z
pdata	ENDS
;	COMDAT pdata
pdata	SEGMENT
$pdata$??_Gbad_alloc@std@@UEAAPEAXI@Z DD imagerel $LN4
	DD	imagerel $LN4+105
	DD	imagerel $unwind$??_Gbad_alloc@std@@UEAAPEAXI@Z
pdata	ENDS
;	COMDAT pdata
pdata	SEGMENT
$pdata$??0bad_array_new_length@std@@QEAA@XZ DD imagerel $LN3
	DD	imagerel $LN3+107
	DD	imagerel $unwind$??0bad_array_new_length@std@@QEAA@XZ
pdata	ENDS
;	COMDAT pdata
pdata	SEGMENT
$pdata$??1bad_array_new_length@std@@UEAA@XZ DD imagerel $LN3
	DD	imagerel $LN3+64
	DD	imagerel $unwind$??1bad_array_new_length@std@@UEAA@XZ
pdata	ENDS
;	COMDAT pdata
pdata	SEGMENT
$pdata$??0bad_array_new_length@std@@QEAA@AEBV01@@Z DD imagerel $LN3
	DD	imagerel $LN3+100
	DD	imagerel $unwind$??0bad_array_new_length@std@@QEAA@AEBV01@@Z
pdata	ENDS
;	COMDAT pdata
pdata	SEGMENT
$pdata$??_Gbad_array_new_length@std@@UEAAPEAXI@Z DD imagerel $LN4
	DD	imagerel $LN4+105
	DD	imagerel $unwind$??_Gbad_array_new_length@std@@UEAAPEAXI@Z
pdata	ENDS
;	COMDAT pdata
pdata	SEGMENT
$pdata$?_Throw_bad_array_new_length@std@@YAXXZ DD imagerel $LN3
	DD	imagerel $LN3+83
	DD	imagerel $unwind$?_Throw_bad_array_new_length@std@@YAXXZ
pdata	ENDS
;	COMDAT pdata
pdata	SEGMENT
$pdata$?max@?$numeric_limits@_J@std@@SA_JXZ DD imagerel $LN3
	DD	imagerel $LN3+62
	DD	imagerel $unwind$?max@?$numeric_limits@_J@std@@SA_JXZ
pdata	ENDS
;	COMDAT pdata
pdata	SEGMENT
$pdata$?_Allocate@_Default_allocate_traits@std@@SAPEAX_K@Z DD imagerel $LN3
	DD	imagerel $LN3+76
	DD	imagerel $unwind$?_Allocate@_Default_allocate_traits@std@@SAPEAX_K@Z
pdata	ENDS
;	COMDAT pdata
pdata	SEGMENT
$pdata$?_Adjust_manually_vector_aligned@std@@YAXAEAPEAXAEA_K@Z DD imagerel $LN21
	DD	imagerel $LN21+476
	DD	imagerel $unwind$?_Adjust_manually_vector_aligned@std@@YAXAEAPEAXAEA_K@Z
pdata	ENDS
;	COMDAT pdata
pdata	SEGMENT
$pdata$??$_Convert_size@_K@std@@YA_K_K@Z DD imagerel $LN3
	DD	imagerel $LN3+71
	DD	imagerel $unwind$??$_Convert_size@_K@std@@YA_K_K@Z
pdata	ENDS
;	COMDAT pdata
pdata	SEGMENT
$pdata$??0_Container_proxy@std@@QEAA@PEAU_Container_base12@1@@Z DD imagerel $LN3
	DD	imagerel $LN3+108
	DD	imagerel $unwind$??0_Container_proxy@std@@QEAA@PEAU_Container_base12@1@@Z
pdata	ENDS
;	COMDAT pdata
pdata	SEGMENT
$pdata$??0_Container_base12@std@@QEAA@XZ DD imagerel $LN3
	DD	imagerel $LN3+85
	DD	imagerel $unwind$??0_Container_base12@std@@QEAA@XZ
pdata	ENDS
;	COMDAT pdata
pdata	SEGMENT
$pdata$?_Orphan_all@_Container_base12@std@@QEAAXXZ DD imagerel $LN7
	DD	imagerel $LN7+233
	DD	imagerel $unwind$?_Orphan_all@_Container_base12@std@@QEAAXXZ
pdata	ENDS
;	COMDAT pdata
pdata	SEGMENT
$pdata$?_Release@_Basic_container_proxy_ptr12@std@@QEAAXXZ DD imagerel $LN3
	DD	imagerel $LN3+78
	DD	imagerel $unwind$?_Release@_Basic_container_proxy_ptr12@std@@QEAAXXZ
pdata	ENDS
;	COMDAT pdata
pdata	SEGMENT
$pdata$??$addressof@U_Container_base12@std@@@std@@YAPEAU_Container_base12@0@AEAU10@@Z DD imagerel $LN3
	DD	imagerel $LN3+71
	DD	imagerel $unwind$??$addressof@U_Container_base12@std@@@std@@YAPEAU_Container_base12@0@AEAU10@@Z
pdata	ENDS
;	COMDAT pdata
pdata	SEGMENT
$pdata$??$_Construct_in_place@U_Container_proxy@std@@PEAU_Container_base12@2@@std@@YAXAEAU_Container_proxy@0@$$QEAPEAU_Container_base12@0@@Z DD imagerel $LN3
	DD	imagerel $LN3+129
	DD	imagerel $unwind$??$_Construct_in_place@U_Container_proxy@std@@PEAU_Container_base12@2@@std@@YAXAEAU_Container_proxy@0@$$QEAPEAU_Container_base12@0@@Z
pdata	ENDS
;	COMDAT pdata
pdata	SEGMENT
$pdata$?length@?$_Narrow_char_traits@DH@std@@SA_KQEBD@Z DD imagerel $LN3
	DD	imagerel $LN3+77
	DD	imagerel $unwind$?length@?$_Narrow_char_traits@DH@std@@SA_KQEBD@Z
pdata	ENDS
;	COMDAT pdata
pdata	SEGMENT
$pdata$?copy@?$_Narrow_char_traits@DH@std@@SAPEADQEADQEBD_K@Z DD imagerel $LN3
	DD	imagerel $LN3+101
	DD	imagerel $unwind$?copy@?$_Narrow_char_traits@DH@std@@SAPEADQEADQEBD_K@Z
pdata	ENDS
;	COMDAT pdata
pdata	SEGMENT
$pdata$?move@?$_Narrow_char_traits@DH@std@@SAPEADQEADQEBD_K@Z DD imagerel $LN3
	DD	imagerel $LN3+101
	DD	imagerel $unwind$?move@?$_Narrow_char_traits@DH@std@@SAPEADQEADQEBD_K@Z
pdata	ENDS
;	COMDAT pdata
pdata	SEGMENT
$pdata$?assign@?$_Narrow_char_traits@DH@std@@SAXAEADAEBD@Z DD imagerel $LN3
	DD	imagerel $LN3+88
	DD	imagerel $unwind$?assign@?$_Narrow_char_traits@DH@std@@SAXAEADAEBD@Z
pdata	ENDS
;	COMDAT pdata
pdata	SEGMENT
$pdata$?eq_int_type@?$_Narrow_char_traits@DH@std@@SA_NAEBH0@Z DD imagerel $LN5
	DD	imagerel $LN5+118
	DD	imagerel $unwind$?eq_int_type@?$_Narrow_char_traits@DH@std@@SA_NAEBH0@Z
pdata	ENDS
;	COMDAT pdata
pdata	SEGMENT
$pdata$?eof@?$_Narrow_char_traits@DH@std@@SAHXZ DD imagerel $LN3
	DD	imagerel $LN3+57
	DD	imagerel $unwind$?eof@?$_Narrow_char_traits@DH@std@@SAHXZ
pdata	ENDS
;	COMDAT pdata
pdata	SEGMENT
$pdata$?_Xlen_string@std@@YAXXZ DD imagerel $LN3
	DD	imagerel $LN3+64
	DD	imagerel $unwind$?_Xlen_string@std@@YAXXZ
pdata	ENDS
;	COMDAT pdata
pdata	SEGMENT
$pdata$??0?$allocator@D@std@@QEAA@XZ DD imagerel $LN3
	DD	imagerel $LN3+71
	DD	imagerel $unwind$??0?$allocator@D@std@@QEAA@XZ
pdata	ENDS
;	COMDAT pdata
pdata	SEGMENT
$pdata$?deallocate@?$allocator@D@std@@QEAAXQEAD_K@Z DD imagerel $LN3
	DD	imagerel $LN3+93
	DD	imagerel $unwind$?deallocate@?$allocator@D@std@@QEAAXQEAD_K@Z
pdata	ENDS
;	COMDAT pdata
pdata	SEGMENT
$pdata$?allocate@?$allocator@D@std@@QEAAPEAD_K@Z DD imagerel $LN3
	DD	imagerel $LN3+89
	DD	imagerel $unwind$?allocate@?$allocator@D@std@@QEAAPEAD_K@Z
pdata	ENDS
;	COMDAT pdata
pdata	SEGMENT
$pdata$?max_size@?$_Default_allocator_traits@V?$allocator@D@std@@@std@@SA_KAEBV?$allocator@D@2@@Z DD imagerel $LN3
	DD	imagerel $LN3+71
	DD	imagerel $unwind$?max_size@?$_Default_allocator_traits@V?$allocator@D@std@@@std@@SA_KAEBV?$allocator@D@2@@Z
pdata	ENDS
;	COMDAT pdata
pdata	SEGMENT
$pdata$??0?$_String_val@U?$_Simple_types@D@std@@@std@@QEAA@XZ DD imagerel $LN4
	DD	imagerel $LN4+132
	DD	imagerel $unwind$??0?$_String_val@U?$_Simple_types@D@std@@@std@@QEAA@XZ
pdata	ENDS
;	COMDAT pdata
pdata	SEGMENT
$pdata$?_Myptr@?$_String_val@U?$_Simple_types@D@std@@@std@@QEAAPEADXZ DD imagerel $LN4
	DD	imagerel $LN4+122
	DD	imagerel $unwind$?_Myptr@?$_String_val@U?$_Simple_types@D@std@@@std@@QEAAPEADXZ
pdata	ENDS
;	COMDAT pdata
pdata	SEGMENT
$pdata$?_Large_string_engaged@?$_String_val@U?$_Simple_types@D@std@@@std@@QEBA_NXZ DD imagerel $LN5
	DD	imagerel $LN5+107
	DD	imagerel $unwind$?_Large_string_engaged@?$_String_val@U?$_Simple_types@D@std@@@std@@QEBA_NXZ
pdata	ENDS
;	COMDAT pdata
pdata	SEGMENT
$pdata$??0_Bxty@?$_String_val@U?$_Simple_types@D@std@@@std@@QEAA@XZ DD imagerel $LN3
	DD	imagerel $LN3+71
	DD	imagerel $unwind$??0_Bxty@?$_String_val@U?$_Simple_types@D@std@@@std@@QEAA@XZ
pdata	ENDS
;	COMDAT pdata
pdata	SEGMENT
$pdata$??1_Bxty@?$_String_val@U?$_Simple_types@D@std@@@std@@QEAA@XZ DD imagerel $LN3
	DD	imagerel $LN3+65
	DD	imagerel $unwind$??1_Bxty@?$_String_val@U?$_Simple_types@D@std@@@std@@QEAA@XZ
pdata	ENDS
;	COMDAT pdata
pdata	SEGMENT
$pdata$??1?$_String_val@U?$_Simple_types@D@std@@@std@@QEAA@XZ DD imagerel $LN3
	DD	imagerel $LN3+71
	DD	imagerel $unwind$??1?$_String_val@U?$_Simple_types@D@std@@@std@@QEAA@XZ
pdata	ENDS
;	COMDAT pdata
pdata	SEGMENT
$pdata$??0?$basic_string@DU?$char_traits@D@std@@V?$allocator@D@2@@std@@QEAA@QEBD@Z DD imagerel $LN5
	DD	imagerel $LN5+260
	DD	imagerel $unwind$??0?$basic_string@DU?$char_traits@D@std@@V?$allocator@D@2@@std@@QEAA@QEBD@Z
pdata	ENDS
;	COMDAT pdata
pdata	SEGMENT
$pdata$?dtor$0@?0???0?$basic_string@DU?$char_traits@D@std@@V?$allocator@D@2@@std@@QEAA@QEBD@Z@4HA DD imagerel ?dtor$0@?0???0?$basic_string@DU?$char_traits@D@std@@V?$allocator@D@2@@std@@QEAA@QEBD@Z@4HA
	DD	imagerel ?dtor$0@?0???0?$basic_string@DU?$char_traits@D@std@@V?$allocator@D@2@@std@@QEAA@QEBD@Z@4HA+39
	DD	imagerel $unwind$?dtor$0@?0???0?$basic_string@DU?$char_traits@D@std@@V?$allocator@D@2@@std@@QEAA@QEBD@Z@4HA
pdata	ENDS
;	COMDAT pdata
pdata	SEGMENT
$pdata$?dtor$1@?0???0?$basic_string@DU?$char_traits@D@std@@V?$allocator@D@2@@std@@QEAA@QEBD@Z@4HA DD imagerel ?dtor$1@?0???0?$basic_string@DU?$char_traits@D@std@@V?$allocator@D@2@@std@@QEAA@QEBD@Z@4HA
	DD	imagerel ?dtor$1@?0???0?$basic_string@DU?$char_traits@D@std@@V?$allocator@D@2@@std@@QEAA@QEBD@Z@4HA+36
	DD	imagerel $unwind$?dtor$1@?0???0?$basic_string@DU?$char_traits@D@std@@V?$allocator@D@2@@std@@QEAA@QEBD@Z@4HA
pdata	ENDS
;	COMDAT pdata
pdata	SEGMENT
$pdata$??1?$basic_string@DU?$char_traits@D@std@@V?$allocator@D@2@@std@@QEAA@XZ DD imagerel $LN3
	DD	imagerel $LN3+213
	DD	imagerel $unwind$??1?$basic_string@DU?$char_traits@D@std@@V?$allocator@D@2@@std@@QEAA@XZ
pdata	ENDS
;	COMDAT pdata
pdata	SEGMENT
$pdata$?assign@?$basic_string@DU?$char_traits@D@std@@V?$allocator@D@2@@std@@QEAAAEAV12@QEBD_K@Z DD imagerel $LN4
	DD	imagerel $LN4+255
	DD	imagerel $unwind$?assign@?$basic_string@DU?$char_traits@D@std@@V?$allocator@D@2@@std@@QEAAAEAV12@QEBD_K@Z
pdata	ENDS
;	COMDAT pdata
pdata	SEGMENT
$pdata$?assign@?$basic_string@DU?$char_traits@D@std@@V?$allocator@D@2@@std@@QEAAAEAV12@QEBD@Z DD imagerel $LN3
	DD	imagerel $LN3+111
	DD	imagerel $unwind$?assign@?$basic_string@DU?$char_traits@D@std@@V?$allocator@D@2@@std@@QEAAAEAV12@QEBD@Z
pdata	ENDS
;	COMDAT pdata
pdata	SEGMENT
$pdata$?max_size@?$basic_string@DU?$char_traits@D@std@@V?$allocator@D@2@@std@@QEBA_KXZ DD imagerel $LN3
	DD	imagerel $LN3+224
	DD	imagerel $unwind$?max_size@?$basic_string@DU?$char_traits@D@std@@V?$allocator@D@2@@std@@QEBA_KXZ
pdata	ENDS
;	COMDAT pdata
pdata	SEGMENT
$pdata$?_Calculate_growth@?$basic_string@DU?$char_traits@D@std@@V?$allocator@D@2@@std@@CA_K_K00@Z DD imagerel $LN5
	DD	imagerel $LN5+269
	DD	imagerel $unwind$?_Calculate_growth@?$basic_string@DU?$char_traits@D@std@@V?$allocator@D@2@@std@@CA_K_K00@Z
pdata	ENDS
;	COMDAT pdata
pdata	SEGMENT
$pdata$?_Calculate_growth@?$basic_string@DU?$char_traits@D@std@@V?$allocator@D@2@@std@@AEBA_K_K@Z DD imagerel $LN3
	DD	imagerel $LN3+108
	DD	imagerel $unwind$?_Calculate_growth@?$basic_string@DU?$char_traits@D@std@@V?$allocator@D@2@@std@@AEBA_K_K@Z
pdata	ENDS
;	COMDAT pdata
pdata	SEGMENT
$pdata$?_Tidy_init@?$basic_string@DU?$char_traits@D@std@@V?$allocator@D@2@@std@@AEAAXXZ DD imagerel $LN3
	DD	imagerel $LN3+138
	DD	imagerel $unwind$?_Tidy_init@?$basic_string@DU?$char_traits@D@std@@V?$allocator@D@2@@std@@AEAAXXZ
pdata	ENDS
;	COMDAT pdata
pdata	SEGMENT
$pdata$?_Tidy_deallocate@?$basic_string@DU?$char_traits@D@std@@V?$allocator@D@2@@std@@AEAAXXZ DD imagerel $LN4
	DD	imagerel $LN4+255
	DD	imagerel $unwind$?_Tidy_deallocate@?$basic_string@DU?$char_traits@D@std@@V?$allocator@D@2@@std@@AEAAXXZ
pdata	ENDS
;	COMDAT pdata
pdata	SEGMENT
$pdata$?_Getal@?$basic_string@DU?$char_traits@D@std@@V?$allocator@D@2@@std@@AEAAAEAV?$allocator@D@2@XZ DD imagerel $LN3
	DD	imagerel $LN3+80
	DD	imagerel $unwind$?_Getal@?$basic_string@DU?$char_traits@D@std@@V?$allocator@D@2@@std@@AEAAAEAV?$allocator@D@2@XZ
pdata	ENDS
;	COMDAT pdata
pdata	SEGMENT
$pdata$?_Getal@?$basic_string@DU?$char_traits@D@std@@V?$allocator@D@2@@std@@AEBAAEBV?$allocator@D@2@XZ DD imagerel $LN3
	DD	imagerel $LN3+80
	DD	imagerel $unwind$?_Getal@?$basic_string@DU?$char_traits@D@std@@V?$allocator@D@2@@std@@AEBAAEBV?$allocator@D@2@XZ
pdata	ENDS
;	COMDAT pdata
pdata	SEGMENT
$pdata$?_Get_first@?$_Compressed_pair@V?$allocator@D@std@@V?$_String_val@U?$_Simple_types@D@std@@@2@$00@std@@QEAAAEAV?$allocator@D@2@XZ DD imagerel $LN3
	DD	imagerel $LN3+71
	DD	imagerel $unwind$?_Get_first@?$_Compressed_pair@V?$allocator@D@std@@V?$_String_val@U?$_Simple_types@D@std@@@2@$00@std@@QEAAAEAV?$allocator@D@2@XZ
pdata	ENDS
;	COMDAT pdata
pdata	SEGMENT
$pdata$?_Get_first@?$_Compressed_pair@V?$allocator@D@std@@V?$_String_val@U?$_Simple_types@D@std@@@2@$00@std@@QEBAAEBV?$allocator@D@2@XZ DD imagerel $LN3
	DD	imagerel $LN3+71
	DD	imagerel $unwind$?_Get_first@?$_Compressed_pair@V?$allocator@D@std@@V?$_String_val@U?$_Simple_types@D@std@@@2@$00@std@@QEBAAEBV?$allocator@D@2@XZ
pdata	ENDS
;	COMDAT pdata
pdata	SEGMENT
$pdata$??1?$_Compressed_pair@V?$allocator@D@std@@V?$_String_val@U?$_Simple_types@D@std@@@2@$00@std@@QEAA@XZ DD imagerel $LN3
	DD	imagerel $LN3+67
	DD	imagerel $unwind$??1?$_Compressed_pair@V?$allocator@D@std@@V?$_String_val@U?$_Simple_types@D@std@@@2@$00@std@@QEAA@XZ
pdata	ENDS
;	COMDAT pdata
pdata	SEGMENT
$pdata$?demomain@@YAHXZ DD imagerel $LN3
	DD	imagerel $LN3+54
	DD	imagerel $unwind$?demomain@@YAHXZ
pdata	ENDS
;	COMDAT pdata
pdata	SEGMENT
$pdata$?calc@@YAHXZ DD imagerel $LN3
	DD	imagerel $LN3+222
	DD	imagerel $unwind$?calc@@YAHXZ
pdata	ENDS
;	COMDAT pdata
pdata	SEGMENT
$pdata$??$?6U?$char_traits@D@std@@@std@@YAAEAV?$basic_ostream@DU?$char_traits@D@std@@@0@AEAV10@PEBD@Z DD imagerel $LN25
	DD	imagerel $LN25+1034
	DD	imagerel $unwind$??$?6U?$char_traits@D@std@@@std@@YAAEAV?$basic_ostream@DU?$char_traits@D@std@@@0@AEAV10@PEBD@Z
pdata	ENDS
;	COMDAT pdata
pdata	SEGMENT
$pdata$?dtor$0@?0???$?6U?$char_traits@D@std@@@std@@YAAEAV?$basic_ostream@DU?$char_traits@D@std@@@0@AEAV10@PEBD@Z@4HA DD imagerel ?dtor$0@?0???$?6U?$char_traits@D@std@@@std@@YAAEAV?$basic_ostream@DU?$char_traits@D@std@@@0@AEAV10@PEBD@Z@4HA
	DD	imagerel ?dtor$0@?0???$?6U?$char_traits@D@std@@@std@@YAAEAV?$basic_ostream@DU?$char_traits@D@std@@@0@AEAV10@PEBD@Z@4HA+36
	DD	imagerel $unwind$?dtor$0@?0???$?6U?$char_traits@D@std@@@std@@YAAEAV?$basic_ostream@DU?$char_traits@D@std@@@0@AEAV10@PEBD@Z@4HA
pdata	ENDS
;	COMDAT pdata
pdata	SEGMENT
$pdata$?catch$1@?0???$?6U?$char_traits@D@std@@@std@@YAAEAV?$basic_ostream@DU?$char_traits@D@std@@@0@AEAV10@PEBD@Z@4HA DD imagerel ?catch$1@?0???$?6U?$char_traits@D@std@@@std@@YAAEAV?$basic_ostream@DU?$char_traits@D@std@@@0@AEAV10@PEBD@Z@4HA
	DD	imagerel ?catch$1@?0???$?6U?$char_traits@D@std@@@std@@YAAEAV?$basic_ostream@DU?$char_traits@D@std@@@0@AEAV10@PEBD@Z@4HA+80
	DD	imagerel $unwind$?catch$1@?0???$?6U?$char_traits@D@std@@@std@@YAAEAV?$basic_ostream@DU?$char_traits@D@std@@@0@AEAV10@PEBD@Z@4HA
pdata	ENDS
;	COMDAT pdata
pdata	SEGMENT
$pdata$?inout@@YAHXZ DD imagerel $LN3
	DD	imagerel $LN3+178
	DD	imagerel $unwind$?inout@@YAHXZ
pdata	ENDS
;	COMDAT pdata
pdata	SEGMENT
$pdata$?notmain@@YAHXZ DD imagerel $LN3
	DD	imagerel $LN3+106
	DD	imagerel $unwind$?notmain@@YAHXZ
pdata	ENDS
;	COMDAT pdata
pdata	SEGMENT
$pdata$main DD	imagerel $LN4
	DD	imagerel $LN4+540
	DD	imagerel $unwind$main
pdata	ENDS
;	COMDAT pdata
pdata	SEGMENT
$pdata$main$dtor$0 DD imagerel main$dtor$0
	DD	imagerel main$dtor$0+39
	DD	imagerel $unwind$main$dtor$0
pdata	ENDS
;	COMDAT pdata
pdata	SEGMENT
$pdata$??$endl@DU?$char_traits@D@std@@@std@@YAAEAV?$basic_ostream@DU?$char_traits@D@std@@@0@AEAV10@@Z DD imagerel $LN3
	DD	imagerel $LN3+138
	DD	imagerel $unwind$??$endl@DU?$char_traits@D@std@@@std@@YAAEAV?$basic_ostream@DU?$char_traits@D@std@@@0@AEAV10@@Z
pdata	ENDS
;	COMDAT pdata
pdata	SEGMENT
$pdata$??0_Sentry_base@?$basic_ostream@DU?$char_traits@D@std@@@std@@QEAA@AEAV12@@Z DD imagerel $LN4
	DD	imagerel $LN4+171
	DD	imagerel $unwind$??0_Sentry_base@?$basic_ostream@DU?$char_traits@D@std@@@std@@QEAA@AEAV12@@Z
pdata	ENDS
;	COMDAT pdata
pdata	SEGMENT
$pdata$??1_Sentry_base@?$basic_ostream@DU?$char_traits@D@std@@@std@@QEAA@XZ DD imagerel $LN4
	DD	imagerel $LN4+143
	DD	imagerel $unwind$??1_Sentry_base@?$basic_ostream@DU?$char_traits@D@std@@@std@@QEAA@XZ
pdata	ENDS
;	COMDAT pdata
pdata	SEGMENT
$pdata$??0sentry@?$basic_ostream@DU?$char_traits@D@std@@@std@@QEAA@AEAV12@@Z DD imagerel $LN7
	DD	imagerel $LN7+284
	DD	imagerel $unwind$??0sentry@?$basic_ostream@DU?$char_traits@D@std@@@std@@QEAA@AEAV12@@Z
pdata	ENDS
;	COMDAT pdata
pdata	SEGMENT
$pdata$?dtor$0@?0???0sentry@?$basic_ostream@DU?$char_traits@D@std@@@std@@QEAA@AEAV12@@Z@4HA DD imagerel ?dtor$0@?0???0sentry@?$basic_ostream@DU?$char_traits@D@std@@@std@@QEAA@AEAV12@@Z@4HA
	DD	imagerel ?dtor$0@?0???0sentry@?$basic_ostream@DU?$char_traits@D@std@@@std@@QEAA@AEAV12@@Z@4HA+39
	DD	imagerel $unwind$?dtor$0@?0???0sentry@?$basic_ostream@DU?$char_traits@D@std@@@std@@QEAA@AEAV12@@Z@4HA
pdata	ENDS
;	COMDAT pdata
pdata	SEGMENT
$pdata$??1sentry@?$basic_ostream@DU?$char_traits@D@std@@@std@@QEAA@XZ DD imagerel $LN6
	DD	imagerel $LN6+139
	DD	imagerel $unwind$??1sentry@?$basic_ostream@DU?$char_traits@D@std@@@std@@QEAA@XZ
pdata	ENDS
;	COMDAT pdata
pdata	SEGMENT
$pdata$??Bsentry@?$basic_ostream@DU?$char_traits@D@std@@@std@@QEBA_NXZ DD imagerel $LN3
	DD	imagerel $LN3+75
	DD	imagerel $unwind$??Bsentry@?$basic_ostream@DU?$char_traits@D@std@@@std@@QEBA_NXZ
pdata	ENDS
;	COMDAT pdata
pdata	SEGMENT
$pdata$??$min@_K@std@@YAAEB_KAEB_K0@Z DD imagerel $LN5
	DD	imagerel $LN5+142
	DD	imagerel $unwind$??$min@_K@std@@YAAEB_KAEB_K0@Z
pdata	ENDS
;	COMDAT pdata
pdata	SEGMENT
$pdata$?allocate@?$allocator@U_Container_proxy@std@@@std@@QEAAPEAU_Container_proxy@2@_K@Z DD imagerel $LN3
	DD	imagerel $LN3+89
	DD	imagerel $unwind$?allocate@?$allocator@U_Container_proxy@std@@@std@@QEAAPEAU_Container_proxy@2@_K@Z
pdata	ENDS
;	COMDAT pdata
pdata	SEGMENT
$pdata$??$_Delete_plain_internal@V?$allocator@U_Container_proxy@std@@@std@@@std@@YAXAEAV?$allocator@U_Container_proxy@std@@@0@QEAU_Container_proxy@0@@Z DD imagerel $LN3
	DD	imagerel $LN3+89
	DD	imagerel $unwind$??$_Delete_plain_internal@V?$allocator@U_Container_proxy@std@@@std@@@std@@YAXAEAV?$allocator@U_Container_proxy@std@@@0@QEAU_Container_proxy@0@@Z
pdata	ENDS
;	COMDAT pdata
pdata	SEGMENT
$pdata$??0?$_Container_proxy_ptr12@V?$allocator@U_Container_proxy@std@@@std@@@std@@QEAA@AEAV?$allocator@U_Container_proxy@std@@@1@AEAU_Container_base12@1@@Z DD imagerel $LN3
	DD	imagerel $LN3+195
	DD	imagerel $unwind$??0?$_Container_proxy_ptr12@V?$allocator@U_Container_proxy@std@@@std@@@std@@QEAA@AEAV?$allocator@U_Container_proxy@std@@@1@AEAU_Container_base12@1@@Z
pdata	ENDS
;	COMDAT pdata
pdata	SEGMENT
$pdata$??1?$_Container_proxy_ptr12@V?$allocator@U_Container_proxy@std@@@std@@@std@@QEAA@XZ DD imagerel $LN4
	DD	imagerel $LN4+104
	DD	imagerel $unwind$??1?$_Container_proxy_ptr12@V?$allocator@U_Container_proxy@std@@@std@@@std@@QEAA@XZ
pdata	ENDS
;	COMDAT pdata
pdata	SEGMENT
$pdata$??$?0D@?$allocator@U_Container_proxy@std@@@std@@QEAA@AEBV?$allocator@D@1@@Z DD imagerel $LN3
	DD	imagerel $LN3+76
	DD	imagerel $unwind$??$?0D@?$allocator@U_Container_proxy@std@@@std@@QEAA@AEBV?$allocator@D@1@@Z
pdata	ENDS
;	COMDAT pdata
pdata	SEGMENT
$pdata$??$?0$$V@?$_Compressed_pair@V?$allocator@D@std@@V?$_String_val@U?$_Simple_types@D@std@@@2@$00@std@@QEAA@U_Zero_then_variadic_args_t@1@@Z DD imagerel $LN4
	DD	imagerel $LN4+102
	DD	imagerel $unwind$??$?0$$V@?$_Compressed_pair@V?$allocator@D@std@@V?$_String_val@U?$_Simple_types@D@std@@@2@$00@std@@QEAA@U_Zero_then_variadic_args_t@1@@Z
pdata	ENDS
;	COMDAT pdata
pdata	SEGMENT
$pdata$??$_Unfancy@U_Container_proxy@std@@@std@@YAPEAU_Container_proxy@0@PEAU10@@Z DD imagerel $LN3
	DD	imagerel $LN3+71
	DD	imagerel $unwind$??$_Unfancy@U_Container_proxy@std@@@std@@YAPEAU_Container_proxy@0@PEAU10@@Z
pdata	ENDS
;	COMDAT pdata
pdata	SEGMENT
$pdata$??$_Destroy_in_place@PEAD@std@@YAXAEAPEAD@Z DD imagerel $LN3
	DD	imagerel $LN3+65
	DD	imagerel $unwind$??$_Destroy_in_place@PEAD@std@@YAXAEAPEAD@Z
pdata	ENDS
;	COMDAT pdata
pdata	SEGMENT
$pdata$??R<lambda_66f57f934f28d61049862f64df852ff0>@@QEBAXQEAD_KQEBD@Z DD imagerel $LN3
	DD	imagerel $LN3+147
	DD	imagerel $unwind$??R<lambda_66f57f934f28d61049862f64df852ff0>@@QEBAXQEAD_KQEBD@Z
pdata	ENDS
;	COMDAT pdata
pdata	SEGMENT
$pdata$??$_Reallocate_for@V<lambda_66f57f934f28d61049862f64df852ff0>@@PEBD@?$basic_string@DU?$char_traits@D@std@@V?$allocator@D@2@@std@@AEAAAEAV01@_KV<lambda_66f57f934f28d61049862f64df852ff0>@@PEBD@Z DD imagerel $LN6
	DD	imagerel $LN6+418
	DD	imagerel $unwind$??$_Reallocate_for@V<lambda_66f57f934f28d61049862f64df852ff0>@@PEBD@?$basic_string@DU?$char_traits@D@std@@V?$allocator@D@2@@std@@AEAAAEAV01@_KV<lambda_66f57f934f28d61049862f64df852ff0>@@PEBD@Z
pdata	ENDS
;	COMDAT pdata
pdata	SEGMENT
$pdata$??$_Construct_in_place@PEADAEBQEAD@std@@YAXAEAPEADAEBQEAD@Z DD imagerel $LN3
	DD	imagerel $LN3+126
	DD	imagerel $unwind$??$_Construct_in_place@PEADAEBQEAD@std@@YAXAEAPEADAEBQEAD@Z
pdata	ENDS
;	COMDAT pdata
pdata	SEGMENT
$pdata$??$_Unfancy@D@std@@YAPEADPEAD@Z DD imagerel $LN3
	DD	imagerel $LN3+71
	DD	imagerel $unwind$??$_Unfancy@D@std@@YAPEADPEAD@Z
pdata	ENDS
;	COMDAT pdata
pdata	SEGMENT
$pdata$??$max@_K@std@@YAAEB_KAEB_K0@Z DD imagerel $LN5
	DD	imagerel $LN5+142
	DD	imagerel $unwind$??$max@_K@std@@YAAEB_KAEB_K0@Z
pdata	ENDS
;	COMDAT pdata
pdata	SEGMENT
$pdata$??$_Get_size_of_n@$0BA@@std@@YA_K_K@Z DD imagerel $LN4
	DD	imagerel $LN4+114
	DD	imagerel $unwind$??$_Get_size_of_n@$0BA@@std@@YA_K_K@Z
pdata	ENDS
;	COMDAT pdata
pdata	SEGMENT
$pdata$??$_Allocate@$0BA@U_Default_allocate_traits@std@@$0A@@std@@YAPEAX_K@Z DD imagerel $LN5
	DD	imagerel $LN5+117
	DD	imagerel $unwind$??$_Allocate@$0BA@U_Default_allocate_traits@std@@$0A@@std@@YAPEAX_K@Z
pdata	ENDS
;	COMDAT pdata
pdata	SEGMENT
$pdata$??$_Deallocate@$0BA@$0A@@std@@YAXPEAX_K@Z DD imagerel $LN4
	DD	imagerel $LN4+121
	DD	imagerel $unwind$??$_Deallocate@$0BA@$0A@@std@@YAXPEAX_K@Z
pdata	ENDS
;	COMDAT pdata
pdata	SEGMENT
$pdata$??$_Get_size_of_n@$00@std@@YA_K_K@Z DD imagerel $LN3
	DD	imagerel $LN3+75
	DD	imagerel $unwind$??$_Get_size_of_n@$00@std@@YA_K_K@Z
pdata	ENDS
;	COMDAT pdata
pdata	SEGMENT
$pdata$??$addressof@U_Container_proxy@std@@@std@@YAPEAU_Container_proxy@0@AEAU10@@Z DD imagerel $LN3
	DD	imagerel $LN3+71
	DD	imagerel $unwind$??$addressof@U_Container_proxy@std@@@std@@YAPEAU_Container_proxy@0@AEAU10@@Z
pdata	ENDS
;	COMDAT pdata
pdata	SEGMENT
$pdata$??$forward@PEAU_Container_base12@std@@@std@@YA$$QEAPEAU_Container_base12@0@AEAPEAU10@@Z DD imagerel $LN3
	DD	imagerel $LN3+71
	DD	imagerel $unwind$??$forward@PEAU_Container_base12@std@@@std@@YA$$QEAPEAU_Container_base12@0@AEAPEAU10@@Z
pdata	ENDS
;	COMDAT pdata
pdata	SEGMENT
$pdata$??$_Deallocate_plain@V?$allocator@U_Container_proxy@std@@@std@@@std@@YAXAEAV?$allocator@U_Container_proxy@std@@@0@QEAU_Container_proxy@0@@Z DD imagerel $LN3
	DD	imagerel $LN3+95
	DD	imagerel $unwind$??$_Deallocate_plain@V?$allocator@U_Container_proxy@std@@@std@@@std@@YAXAEAV?$allocator@U_Container_proxy@std@@@0@QEAU_Container_proxy@0@@Z
pdata	ENDS
;	COMDAT pdata
pdata	SEGMENT
$pdata$??$addressof@PEAD@std@@YAPEAPEADAEAPEAD@Z DD imagerel $LN3
	DD	imagerel $LN3+71
	DD	imagerel $unwind$??$addressof@PEAD@std@@YAPEAPEADAEAPEAD@Z
pdata	ENDS
;	COMDAT pdata
pdata	SEGMENT
$pdata$??$forward@AEBQEAD@std@@YAAEBQEADAEBQEAD@Z DD imagerel $LN3
	DD	imagerel $LN3+71
	DD	imagerel $unwind$??$forward@AEBQEAD@std@@YAAEBQEADAEBQEAD@Z
pdata	ENDS
;	COMDAT pdata
pdata	SEGMENT
$pdata$??$_Allocate_manually_vector_aligned@U_Default_allocate_traits@std@@@std@@YAPEAX_K@Z DD imagerel $LN13
	DD	imagerel $LN13+300
	DD	imagerel $unwind$??$_Allocate_manually_vector_aligned@U_Default_allocate_traits@std@@@std@@YAPEAX_K@Z
pdata	ENDS
;	COMDAT pdata
pdata	SEGMENT
$pdata$?deallocate@?$_Default_allocator_traits@V?$allocator@U_Container_proxy@std@@@std@@@std@@SAXAEAV?$allocator@U_Container_proxy@std@@@2@QEAU_Container_proxy@2@_K@Z DD imagerel $LN3
	DD	imagerel $LN3+97
	DD	imagerel $unwind$?deallocate@?$_Default_allocator_traits@V?$allocator@U_Container_proxy@std@@@std@@@std@@SAXAEAV?$allocator@U_Container_proxy@std@@@2@QEAU_Container_proxy@2@_K@Z
pdata	ENDS
;	COMDAT __real@4017f5c28f5c28f6
CONST	SEGMENT
__real@4017f5c28f5c28f6 DQ 04017f5c28f5c28f6r	; 5.99
CONST	ENDS
;	COMDAT rtc$TMZ
rtc$TMZ	SEGMENT
_RTC_Shutdown.rtc$TMZ DQ FLAT:_RTC_Shutdown
rtc$TMZ	ENDS
;	COMDAT rtc$IMZ
rtc$IMZ	SEGMENT
_RTC_InitBase.rtc$IMZ DQ FLAT:_RTC_InitBase
rtc$IMZ	ENDS
;	COMDAT ??_R1A@?0A@EA@bad_array_new_length@std@@8
rdata$r	SEGMENT
??_R1A@?0A@EA@bad_array_new_length@std@@8 DD imagerel ??_R0?AVbad_array_new_length@std@@@8 ; std::bad_array_new_length::`RTTI Base Class Descriptor at (0,-1,0,64)'
	DD	02H
	DD	00H
	DD	0ffffffffH
	DD	00H
	DD	040H
	DD	imagerel ??_R3bad_array_new_length@std@@8
rdata$r	ENDS
;	COMDAT ??_R2bad_array_new_length@std@@8
rdata$r	SEGMENT
??_R2bad_array_new_length@std@@8 DD imagerel ??_R1A@?0A@EA@bad_array_new_length@std@@8 ; std::bad_array_new_length::`RTTI Base Class Array'
	DD	imagerel ??_R1A@?0A@EA@bad_alloc@std@@8
	DD	imagerel ??_R1A@?0A@EA@exception@std@@8
	ORG $+3
rdata$r	ENDS
;	COMDAT ??_R3bad_array_new_length@std@@8
rdata$r	SEGMENT
??_R3bad_array_new_length@std@@8 DD 00H			; std::bad_array_new_length::`RTTI Class Hierarchy Descriptor'
	DD	00H
	DD	03H
	DD	imagerel ??_R2bad_array_new_length@std@@8
rdata$r	ENDS
;	COMDAT ??_R4bad_array_new_length@std@@6B@
rdata$r	SEGMENT
??_R4bad_array_new_length@std@@6B@ DD 01H		; std::bad_array_new_length::`RTTI Complete Object Locator'
	DD	00H
	DD	00H
	DD	imagerel ??_R0?AVbad_array_new_length@std@@@8
	DD	imagerel ??_R3bad_array_new_length@std@@8
	DD	imagerel ??_R4bad_array_new_length@std@@6B@
rdata$r	ENDS
;	COMDAT ??_R1A@?0A@EA@bad_alloc@std@@8
rdata$r	SEGMENT
??_R1A@?0A@EA@bad_alloc@std@@8 DD imagerel ??_R0?AVbad_alloc@std@@@8 ; std::bad_alloc::`RTTI Base Class Descriptor at (0,-1,0,64)'
	DD	01H
	DD	00H
	DD	0ffffffffH
	DD	00H
	DD	040H
	DD	imagerel ??_R3bad_alloc@std@@8
rdata$r	ENDS
;	COMDAT ??_R2bad_alloc@std@@8
rdata$r	SEGMENT
??_R2bad_alloc@std@@8 DD imagerel ??_R1A@?0A@EA@bad_alloc@std@@8 ; std::bad_alloc::`RTTI Base Class Array'
	DD	imagerel ??_R1A@?0A@EA@exception@std@@8
	ORG $+3
rdata$r	ENDS
;	COMDAT ??_R3bad_alloc@std@@8
rdata$r	SEGMENT
??_R3bad_alloc@std@@8 DD 00H				; std::bad_alloc::`RTTI Class Hierarchy Descriptor'
	DD	00H
	DD	02H
	DD	imagerel ??_R2bad_alloc@std@@8
rdata$r	ENDS
;	COMDAT ??_R4bad_alloc@std@@6B@
rdata$r	SEGMENT
??_R4bad_alloc@std@@6B@ DD 01H				; std::bad_alloc::`RTTI Complete Object Locator'
	DD	00H
	DD	00H
	DD	imagerel ??_R0?AVbad_alloc@std@@@8
	DD	imagerel ??_R3bad_alloc@std@@8
	DD	imagerel ??_R4bad_alloc@std@@6B@
rdata$r	ENDS
;	COMDAT ??_R1A@?0A@EA@exception@std@@8
rdata$r	SEGMENT
??_R1A@?0A@EA@exception@std@@8 DD imagerel ??_R0?AVexception@std@@@8 ; std::exception::`RTTI Base Class Descriptor at (0,-1,0,64)'
	DD	00H
	DD	00H
	DD	0ffffffffH
	DD	00H
	DD	040H
	DD	imagerel ??_R3exception@std@@8
rdata$r	ENDS
;	COMDAT ??_R2exception@std@@8
rdata$r	SEGMENT
??_R2exception@std@@8 DD imagerel ??_R1A@?0A@EA@exception@std@@8 ; std::exception::`RTTI Base Class Array'
	ORG $+3
rdata$r	ENDS
;	COMDAT ??_R3exception@std@@8
rdata$r	SEGMENT
??_R3exception@std@@8 DD 00H				; std::exception::`RTTI Class Hierarchy Descriptor'
	DD	00H
	DD	01H
	DD	imagerel ??_R2exception@std@@8
rdata$r	ENDS
;	COMDAT ??_R4exception@std@@6B@
rdata$r	SEGMENT
??_R4exception@std@@6B@ DD 01H				; std::exception::`RTTI Complete Object Locator'
	DD	00H
	DD	00H
	DD	imagerel ??_R0?AVexception@std@@@8
	DD	imagerel ??_R3exception@std@@8
	DD	imagerel ??_R4exception@std@@6B@
rdata$r	ENDS
;	COMDAT ??_C@_1EO@GFNCMDLA@?$AAs?$AAt?$AAd?$AA?3?$AA?3?$AA_?$AAA?$AAl?$AAl?$AAo?$AAc?$AAa?$AAt?$AAe?$AA_@
CONST	SEGMENT
??_C@_1EO@GFNCMDLA@?$AAs?$AAt?$AAd?$AA?3?$AA?3?$AA_?$AAA?$AAl?$AAl?$AAo?$AAc?$AAa?$AAt?$AAe?$AA_@ DB 's'
	DB	00H, 't', 00H, 'd', 00H, ':', 00H, ':', 00H, '_', 00H, 'A', 00H
	DB	'l', 00H, 'l', 00H, 'o', 00H, 'c', 00H, 'a', 00H, 't', 00H, 'e'
	DB	00H, '_', 00H, 'm', 00H, 'a', 00H, 'n', 00H, 'u', 00H, 'a', 00H
	DB	'l', 00H, 'l', 00H, 'y', 00H, '_', 00H, 'v', 00H, 'e', 00H, 'c'
	DB	00H, 't', 00H, 'o', 00H, 'r', 00H, '_', 00H, 'a', 00H, 'l', 00H
	DB	'i', 00H, 'g', 00H, 'n', 00H, 'e', 00H, 'd', 00H, 00H, 00H ; `string'
CONST	ENDS
;	COMDAT ??_C@_05PBLKMGEL@I?5am?5@
CONST	SEGMENT
??_C@_05PBLKMGEL@I?5am?5@ DB 'I am ', 00H		; `string'
CONST	ENDS
;	COMDAT ??_C@_0N@CIOKKJFG@?5Years?5old?6?6@
CONST	SEGMENT
??_C@_0N@CIOKKJFG@?5Years?5old?6?6@ DB ' Years old', 0aH, 0aH, 00H ; `string'
CONST	ENDS
;	COMDAT ??_C@_05COLMCDPH@Hello@
CONST	SEGMENT
??_C@_05COLMCDPH@Hello@ DB 'Hello', 00H			; `string'
CONST	ENDS
;	COMDAT ??_C@_0BP@GICJMLGF@Just?5kidding?5it?8s?5a?5hot?5day?$CB?6?6@
CONST	SEGMENT
??_C@_0BP@GICJMLGF@Just?5kidding?5it?8s?5a?5hot?5day?$CB?6?6@ DB 'Just ki'
	DB	'dding it''s a hot day!', 0aH, 0aH, 00H	; `string'
CONST	ENDS
;	COMDAT ??_C@_0BK@FKMNAKKG@Weather?5kind?5of?5sucks?5no?$DP@
CONST	SEGMENT
??_C@_0BK@FKMNAKKG@Weather?5kind?5of?5sucks?5no?$DP@ DB 'Weather kind of '
	DB	'sucks no?', 00H				; `string'
CONST	ENDS
;	COMDAT ??_C@_0BG@KLNHFDLK@Great?5day?5ain?8t?5it?$DP?6?6@
CONST	SEGMENT
??_C@_0BG@KLNHFDLK@Great?5day?5ain?8t?5it?$DP?6?6@ DB 'Great day ain''t i'
	DB	't?', 0aH, 0aH, 00H				; `string'
CONST	ENDS
;	COMDAT ??_C@_0BE@GAECMEJP@I?5am?5learning?5C?$CL?$CL?6?6@
CONST	SEGMENT
??_C@_0BE@GAECMEJP@I?5am?5learning?5C?$CL?$CL?6?6@ DB 'I am learning C++', 0aH
	DB	0aH, 00H					; `string'
CONST	ENDS
;	COMDAT ??_C@_0BD@BCJPKDIB@I?5am?5learning?5C?$CL?$CL?6@
CONST	SEGMENT
??_C@_0BD@BCJPKDIB@I?5am?5learning?5C?$CL?$CL?6@ DB 'I am learning C++', 0aH
	DB	00H						; `string'
CONST	ENDS
;	COMDAT ??_C@_0BL@FEAEPCOP@Hello?5world?5on?5a?5new?5line?6@
CONST	SEGMENT
??_C@_0BL@FEAEPCOP@Hello?5world?5on?5a?5new?5line?6@ DB 'Hello world on a'
	DB	' new line', 0aH, 00H			; `string'
CONST	ENDS
;	COMDAT ??_C@_0BC@MIJPDIEH@I?5am?5learning?5C?$CL?$CL@
CONST	SEGMENT
??_C@_0BC@MIJPDIEH@I?5am?5learning?5C?$CL?$CL@ DB 'I am learning C++', 00H ; `string'
CONST	ENDS
;	COMDAT ??_C@_0M@KIBDPGDE@Hello?5world@
CONST	SEGMENT
??_C@_0M@KIBDPGDE@Hello?5world@ DB 'Hello world', 00H	; `string'
CONST	ENDS
;	COMDAT ??_C@_0BB@IKKEJHJF@Your?5number?5is?3?5@
CONST	SEGMENT
??_C@_0BB@IKKEJHJF@Your?5number?5is?3?5@ DB 'Your number is: ', 00H ; `string'
CONST	ENDS
;	COMDAT ??_C@_08KIEHPKP@Sum?5is?3?5@
CONST	SEGMENT
??_C@_08KIEHPKP@Sum?5is?3?5@ DB 'Sum is: ', 00H		; `string'
CONST	ENDS
;	COMDAT ??_C@_0BG@MLJOIFMK@Type?5another?5number?3?5@
CONST	SEGMENT
??_C@_0BG@MLJOIFMK@Type?5another?5number?3?5@ DB 'Type another number: ', 00H ; `string'
CONST	ENDS
;	COMDAT ??_C@_0BA@LDFHCECK@Type?5a?5number?3?5@
CONST	SEGMENT
??_C@_0BA@LDFHCECK@Type?5a?5number?3?5@ DB 'Type a number: ', 00H ; `string'
CONST	ENDS
;	COMDAT ??_C@_0BA@JFNIOLAK@string?5too?5long@
CONST	SEGMENT
??_C@_0BA@JFNIOLAK@string?5too?5long@ DB 'string too long', 00H ; `string'
CONST	ENDS
;	COMDAT ??_C@_1CG@JNLFBNGN@?$AA?$CC?$AAi?$AAn?$AAv?$AAa?$AAl?$AAi?$AAd?$AA?5?$AAa?$AAr?$AAg?$AAu?$AAm?$AAe@
CONST	SEGMENT
??_C@_1CG@JNLFBNGN@?$AA?$CC?$AAi?$AAn?$AAv?$AAa?$AAl?$AAi?$AAd?$AA?5?$AAa?$AAr?$AAg?$AAu?$AAm?$AAe@ DB '"'
	DB	00H, 'i', 00H, 'n', 00H, 'v', 00H, 'a', 00H, 'l', 00H, 'i', 00H
	DB	'd', 00H, ' ', 00H, 'a', 00H, 'r', 00H, 'g', 00H, 'u', 00H, 'm'
	DB	00H, 'e', 00H, 'n', 00H, 't', 00H, '"', 00H, 00H, 00H ; `string'
CONST	ENDS
;	COMDAT ??_C@_1EK@NIFDJFDG@?$AAs?$AAt?$AAd?$AA?3?$AA?3?$AA_?$AAA?$AAd?$AAj?$AAu?$AAs?$AAt?$AA_?$AAm?$AAa@
CONST	SEGMENT
??_C@_1EK@NIFDJFDG@?$AAs?$AAt?$AAd?$AA?3?$AA?3?$AA_?$AAA?$AAd?$AAj?$AAu?$AAs?$AAt?$AA_?$AAm?$AAa@ DB 's'
	DB	00H, 't', 00H, 'd', 00H, ':', 00H, ':', 00H, '_', 00H, 'A', 00H
	DB	'd', 00H, 'j', 00H, 'u', 00H, 's', 00H, 't', 00H, '_', 00H, 'm'
	DB	00H, 'a', 00H, 'n', 00H, 'u', 00H, 'a', 00H, 'l', 00H, 'l', 00H
	DB	'y', 00H, '_', 00H, 'v', 00H, 'e', 00H, 'c', 00H, 't', 00H, 'o'
	DB	00H, 'r', 00H, '_', 00H, 'a', 00H, 'l', 00H, 'i', 00H, 'g', 00H
	DB	'n', 00H, 'e', 00H, 'd', 00H, 00H, 00H	; `string'
CONST	ENDS
;	COMDAT ??_C@_1NA@FEEOBALC@?$AAC?$AA?3?$AA?2?$AAP?$AAr?$AAo?$AAg?$AAr?$AAa?$AAm?$AA?5?$AAF?$AAi?$AAl?$AAe@
CONST	SEGMENT
??_C@_1NA@FEEOBALC@?$AAC?$AA?3?$AA?2?$AAP?$AAr?$AAo?$AAg?$AAr?$AAa?$AAm?$AA?5?$AAF?$AAi?$AAl?$AAe@ DB 'C'
	DB	00H, ':', 00H, '\', 00H, 'P', 00H, 'r', 00H, 'o', 00H, 'g', 00H
	DB	'r', 00H, 'a', 00H, 'm', 00H, ' ', 00H, 'F', 00H, 'i', 00H, 'l'
	DB	00H, 'e', 00H, 's', 00H, ' ', 00H, '(', 00H, 'x', 00H, '8', 00H
	DB	'6', 00H, ')', 00H, '\', 00H, 'M', 00H, 'i', 00H, 'c', 00H, 'r'
	DB	00H, 'o', 00H, 's', 00H, 'o', 00H, 'f', 00H, 't', 00H, ' ', 00H
	DB	'V', 00H, 'i', 00H, 's', 00H, 'u', 00H, 'a', 00H, 'l', 00H, ' '
	DB	00H, 'S', 00H, 't', 00H, 'u', 00H, 'd', 00H, 'i', 00H, 'o', 00H
	DB	'\', 00H, '2', 00H, '0', 00H, '1', 00H, '9', 00H, '\', 00H, 'C'
	DB	00H, 'o', 00H, 'm', 00H, 'm', 00H, 'u', 00H, 'n', 00H, 'i', 00H
	DB	't', 00H, 'y', 00H, '\', 00H, 'V', 00H, 'C', 00H, '\', 00H, 'T'
	DB	00H, 'o', 00H, 'o', 00H, 'l', 00H, 's', 00H, '\', 00H, 'M', 00H
	DB	'S', 00H, 'V', 00H, 'C', 00H, '\', 00H, '1', 00H, '4', 00H, '.'
	DB	00H, '2', 00H, '7', 00H, '.', 00H, '2', 00H, '9', 00H, '1', 00H
	DB	'1', 00H, '0', 00H, '\', 00H, 'i', 00H, 'n', 00H, 'c', 00H, 'l'
	DB	00H, 'u', 00H, 'd', 00H, 'e', 00H, '\', 00H, 'x', 00H, 'm', 00H
	DB	'e', 00H, 'm', 00H, 'o', 00H, 'r', 00H, 'y', 00H, 00H, 00H ; `string'
CONST	ENDS
;	COMDAT ??_C@_0GI@JMEOMKJO@C?3?2Program?5Files?5?$CIx86?$CJ?2Microsof@
CONST	SEGMENT
??_C@_0GI@JMEOMKJO@C?3?2Program?5Files?5?$CIx86?$CJ?2Microsof@ DB 'C:\Pro'
	DB	'gram Files (x86)\Microsoft Visual Studio\2019\Community\VC\To'
	DB	'ols\MSVC\14.27.29110\include\xmemory', 00H	; `string'
CONST	ENDS
;	COMDAT ??_C@_02DKCKIIND@?$CFs@
CONST	SEGMENT
??_C@_02DKCKIIND@?$CFs@ DB '%s', 00H			; `string'
CONST	ENDS
;	COMDAT ??_C@_0BB@FCMFBGOM@invalid?5argument@
CONST	SEGMENT
??_C@_0BB@FCMFBGOM@invalid?5argument@ DB 'invalid argument', 00H ; `string'
CONST	ENDS
;	COMDAT ?__LINE__Var@?0??_Adjust_manually_vector_aligned@std@@YAXAEAPEAXAEA_K@Z@4JA
_DATA	SEGMENT
?__LINE__Var@?0??_Adjust_manually_vector_aligned@std@@YAXAEAPEAXAEA_K@Z@4JA DD 084H ; `std::_Adjust_manually_vector_aligned'::`1'::__LINE__Var
_DATA	ENDS
;	COMDAT _CT??_R0?AVexception@std@@@8??0exception@std@@QEAA@AEBV01@@Z24
xdata$x	SEGMENT
_CT??_R0?AVexception@std@@@8??0exception@std@@QEAA@AEBV01@@Z24 DD 00H
	DD	imagerel ??_R0?AVexception@std@@@8
	DD	00H
	DD	0ffffffffH
	ORG $+4
	DD	018H
	DD	imagerel ??0exception@std@@QEAA@AEBV01@@Z
xdata$x	ENDS
;	COMDAT ??_R0?AVexception@std@@@8
data$r	SEGMENT
??_R0?AVexception@std@@@8 DQ FLAT:??_7type_info@@6B@	; std::exception `RTTI Type Descriptor'
	DQ	0000000000000000H
	DB	'.?AVexception@std@@', 00H
data$r	ENDS
;	COMDAT _CT??_R0?AVbad_alloc@std@@@8??0bad_alloc@std@@QEAA@AEBV01@@Z24
xdata$x	SEGMENT
_CT??_R0?AVbad_alloc@std@@@8??0bad_alloc@std@@QEAA@AEBV01@@Z24 DD 010H
	DD	imagerel ??_R0?AVbad_alloc@std@@@8
	DD	00H
	DD	0ffffffffH
	ORG $+4
	DD	018H
	DD	imagerel ??0bad_alloc@std@@QEAA@AEBV01@@Z
xdata$x	ENDS
;	COMDAT ??_R0?AVbad_alloc@std@@@8
data$r	SEGMENT
??_R0?AVbad_alloc@std@@@8 DQ FLAT:??_7type_info@@6B@	; std::bad_alloc `RTTI Type Descriptor'
	DQ	0000000000000000H
	DB	'.?AVbad_alloc@std@@', 00H
data$r	ENDS
;	COMDAT _CT??_R0?AVbad_array_new_length@std@@@8??0bad_array_new_length@std@@QEAA@AEBV01@@Z24
xdata$x	SEGMENT
_CT??_R0?AVbad_array_new_length@std@@@8??0bad_array_new_length@std@@QEAA@AEBV01@@Z24 DD 00H
	DD	imagerel ??_R0?AVbad_array_new_length@std@@@8
	DD	00H
	DD	0ffffffffH
	ORG $+4
	DD	018H
	DD	imagerel ??0bad_array_new_length@std@@QEAA@AEBV01@@Z
xdata$x	ENDS
;	COMDAT ??_R0?AVbad_array_new_length@std@@@8
data$r	SEGMENT
??_R0?AVbad_array_new_length@std@@@8 DQ FLAT:??_7type_info@@6B@ ; std::bad_array_new_length `RTTI Type Descriptor'
	DQ	0000000000000000H
	DB	'.?AVbad_array_new_length@std@@', 00H
data$r	ENDS
;	COMDAT _CTA3?AVbad_array_new_length@std@@
xdata$x	SEGMENT
_CTA3?AVbad_array_new_length@std@@ DD 03H
	DD	imagerel _CT??_R0?AVbad_array_new_length@std@@@8??0bad_array_new_length@std@@QEAA@AEBV01@@Z24
	DD	imagerel _CT??_R0?AVbad_alloc@std@@@8??0bad_alloc@std@@QEAA@AEBV01@@Z24
	DD	imagerel _CT??_R0?AVexception@std@@@8??0exception@std@@QEAA@AEBV01@@Z24
xdata$x	ENDS
;	COMDAT _TI3?AVbad_array_new_length@std@@
xdata$x	SEGMENT
_TI3?AVbad_array_new_length@std@@ DD 00H
	DD	imagerel ??1bad_array_new_length@std@@UEAA@XZ
	DD	00H
	DD	imagerel _CTA3?AVbad_array_new_length@std@@
xdata$x	ENDS
;	COMDAT ??_C@_0BF@KINCDENJ@bad?5array?5new?5length@
CONST	SEGMENT
??_C@_0BF@KINCDENJ@bad?5array?5new?5length@ DB 'bad array new length', 00H ; `string'
CONST	ENDS
;	COMDAT ??_7bad_array_new_length@std@@6B@
CONST	SEGMENT
??_7bad_array_new_length@std@@6B@ DQ FLAT:??_R4bad_array_new_length@std@@6B@ ; std::bad_array_new_length::`vftable'
	DQ	FLAT:??_Ebad_array_new_length@std@@UEAAPEAXI@Z
	DQ	FLAT:?what@exception@std@@UEBAPEBDXZ
CONST	ENDS
;	COMDAT ??_7bad_alloc@std@@6B@
CONST	SEGMENT
??_7bad_alloc@std@@6B@ DQ FLAT:??_R4bad_alloc@std@@6B@	; std::bad_alloc::`vftable'
	DQ	FLAT:??_Ebad_alloc@std@@UEAAPEAXI@Z
	DQ	FLAT:?what@exception@std@@UEBAPEBDXZ
CONST	ENDS
;	COMDAT ??_C@_0BC@EOODALEL@Unknown?5exception@
CONST	SEGMENT
??_C@_0BC@EOODALEL@Unknown?5exception@ DB 'Unknown exception', 00H ; `string'
CONST	ENDS
;	COMDAT ??_7exception@std@@6B@
CONST	SEGMENT
??_7exception@std@@6B@ DQ FLAT:??_R4exception@std@@6B@	; std::exception::`vftable'
	DQ	FLAT:??_Eexception@std@@UEAAPEAXI@Z
	DQ	FLAT:?what@exception@std@@UEBAPEBDXZ
CONST	ENDS
;	COMDAT xdata
xdata	SEGMENT
$unwind$?deallocate@?$_Default_allocator_traits@V?$allocator@U_Container_proxy@std@@@std@@@std@@SAXAEAV?$allocator@U_Container_proxy@std@@@2@QEAU_Container_proxy@2@_K@Z DD 025053401H
	DD	0118231dH
	DD	07011001dH
	DD	05010H
xdata	ENDS
;	COMDAT xdata
xdata	SEGMENT
$unwind$??$_Allocate_manually_vector_aligned@U_Default_allocate_traits@std@@@std@@YAPEAX_K@Z DD 035052a01H
	DD	010e3313H
	DD	07007002bH
	DD	05006H
xdata	ENDS
;	COMDAT xdata
xdata	SEGMENT
$ip2state$??$forward@AEBQEAD@std@@YAAEBQEADAEBQEAD@Z DB 02H
	DB	00H
	DB	00H
xdata	ENDS
;	COMDAT xdata
xdata	SEGMENT
$cppxdata$??$forward@AEBQEAD@std@@YAAEBQEADAEBQEAD@Z DB 060H
	DD	imagerel $ip2state$??$forward@AEBQEAD@std@@YAAEBQEADAEBQEAD@Z
xdata	ENDS
;	COMDAT xdata
xdata	SEGMENT
$unwind$??$forward@AEBQEAD@std@@YAAEBQEADAEBQEAD@Z DD 025052a19H
	DD	010e2313H
	DD	07007001dH
	DD	05006H
	DD	imagerel __CxxFrameHandler4
	DD	imagerel $cppxdata$??$forward@AEBQEAD@std@@YAAEBQEADAEBQEAD@Z
xdata	ENDS
;	COMDAT xdata
xdata	SEGMENT
$ip2state$??$addressof@PEAD@std@@YAPEAPEADAEAPEAD@Z DB 02H
	DB	00H
	DB	00H
xdata	ENDS
;	COMDAT xdata
xdata	SEGMENT
$cppxdata$??$addressof@PEAD@std@@YAPEAPEADAEAPEAD@Z DB 060H
	DD	imagerel $ip2state$??$addressof@PEAD@std@@YAPEAPEADAEAPEAD@Z
xdata	ENDS
;	COMDAT xdata
xdata	SEGMENT
$unwind$??$addressof@PEAD@std@@YAPEAPEADAEAPEAD@Z DD 025052a19H
	DD	010e2313H
	DD	07007001dH
	DD	05006H
	DD	imagerel __CxxFrameHandler4
	DD	imagerel $cppxdata$??$addressof@PEAD@std@@YAPEAPEADAEAPEAD@Z
xdata	ENDS
;	COMDAT xdata
xdata	SEGMENT
$ip2state$??$_Deallocate_plain@V?$allocator@U_Container_proxy@std@@@std@@@std@@YAXAEAV?$allocator@U_Container_proxy@std@@@0@QEAU_Container_proxy@0@@Z DB 02H
	DB	00H
	DB	00H
xdata	ENDS
;	COMDAT xdata
xdata	SEGMENT
$cppxdata$??$_Deallocate_plain@V?$allocator@U_Container_proxy@std@@@std@@@std@@YAXAEAV?$allocator@U_Container_proxy@std@@@0@QEAU_Container_proxy@0@@Z DB 060H
	DD	imagerel $ip2state$??$_Deallocate_plain@V?$allocator@U_Container_proxy@std@@@std@@@std@@YAXAEAV?$allocator@U_Container_proxy@std@@@0@QEAU_Container_proxy@0@@Z
xdata	ENDS
;	COMDAT xdata
xdata	SEGMENT
$unwind$??$_Deallocate_plain@V?$allocator@U_Container_proxy@std@@@std@@@std@@YAXAEAV?$allocator@U_Container_proxy@std@@@0@QEAU_Container_proxy@0@@Z DD 025052f19H
	DD	01132318H
	DD	0700c001dH
	DD	0500bH
	DD	imagerel __CxxFrameHandler4
	DD	imagerel $cppxdata$??$_Deallocate_plain@V?$allocator@U_Container_proxy@std@@@std@@@std@@YAXAEAV?$allocator@U_Container_proxy@std@@@0@QEAU_Container_proxy@0@@Z
xdata	ENDS
;	COMDAT xdata
xdata	SEGMENT
$ip2state$??$forward@PEAU_Container_base12@std@@@std@@YA$$QEAPEAU_Container_base12@0@AEAPEAU10@@Z DB 02H
	DB	00H
	DB	00H
xdata	ENDS
;	COMDAT xdata
xdata	SEGMENT
$cppxdata$??$forward@PEAU_Container_base12@std@@@std@@YA$$QEAPEAU_Container_base12@0@AEAPEAU10@@Z DB 060H
	DD	imagerel $ip2state$??$forward@PEAU_Container_base12@std@@@std@@YA$$QEAPEAU_Container_base12@0@AEAPEAU10@@Z
xdata	ENDS
;	COMDAT xdata
xdata	SEGMENT
$unwind$??$forward@PEAU_Container_base12@std@@@std@@YA$$QEAPEAU_Container_base12@0@AEAPEAU10@@Z DD 025052a19H
	DD	010e2313H
	DD	07007001dH
	DD	05006H
	DD	imagerel __CxxFrameHandler4
	DD	imagerel $cppxdata$??$forward@PEAU_Container_base12@std@@@std@@YA$$QEAPEAU_Container_base12@0@AEAPEAU10@@Z
xdata	ENDS
;	COMDAT xdata
xdata	SEGMENT
$ip2state$??$addressof@U_Container_proxy@std@@@std@@YAPEAU_Container_proxy@0@AEAU10@@Z DB 02H
	DB	00H
	DB	00H
xdata	ENDS
;	COMDAT xdata
xdata	SEGMENT
$cppxdata$??$addressof@U_Container_proxy@std@@@std@@YAPEAU_Container_proxy@0@AEAU10@@Z DB 060H
	DD	imagerel $ip2state$??$addressof@U_Container_proxy@std@@@std@@YAPEAU_Container_proxy@0@AEAU10@@Z
xdata	ENDS
;	COMDAT xdata
xdata	SEGMENT
$unwind$??$addressof@U_Container_proxy@std@@@std@@YAPEAU_Container_proxy@0@AEAU10@@Z DD 025052a19H
	DD	010e2313H
	DD	07007001dH
	DD	05006H
	DD	imagerel __CxxFrameHandler4
	DD	imagerel $cppxdata$??$addressof@U_Container_proxy@std@@@std@@YAPEAU_Container_proxy@0@AEAU10@@Z
xdata	ENDS
;	COMDAT xdata
xdata	SEGMENT
$unwind$??$_Get_size_of_n@$00@std@@YA_K_K@Z DD 025052a01H
	DD	010e2313H
	DD	070070021H
	DD	05006H
xdata	ENDS
;	COMDAT xdata
xdata	SEGMENT
$ip2state$??$_Deallocate@$0BA@$0A@@std@@YAXPEAX_K@Z DB 02H
	DB	00H
	DB	00H
xdata	ENDS
;	COMDAT xdata
xdata	SEGMENT
$cppxdata$??$_Deallocate@$0BA@$0A@@std@@YAXPEAX_K@Z DB 060H
	DD	imagerel $ip2state$??$_Deallocate@$0BA@$0A@@std@@YAXPEAX_K@Z
xdata	ENDS
;	COMDAT xdata
xdata	SEGMENT
$unwind$??$_Deallocate@$0BA@$0A@@std@@YAXPEAX_K@Z DD 025052f19H
	DD	01132318H
	DD	0700c001dH
	DD	0500bH
	DD	imagerel __CxxFrameHandler4
	DD	imagerel $cppxdata$??$_Deallocate@$0BA@$0A@@std@@YAXPEAX_K@Z
xdata	ENDS
;	COMDAT xdata
xdata	SEGMENT
$unwind$??$_Allocate@$0BA@U_Default_allocate_traits@std@@$0A@@std@@YAPEAX_K@Z DD 025052a01H
	DD	010e2313H
	DD	07007001dH
	DD	05006H
xdata	ENDS
;	COMDAT xdata
xdata	SEGMENT
$unwind$??$_Get_size_of_n@$0BA@@std@@YA_K_K@Z DD 025052a01H
	DD	010e2313H
	DD	070070025H
	DD	05006H
xdata	ENDS
;	COMDAT xdata
xdata	SEGMENT
$ip2state$??$max@_K@std@@YAAEB_KAEB_K0@Z DB 02H
	DB	00H
	DB	00H
xdata	ENDS
;	COMDAT xdata
xdata	SEGMENT
$cppxdata$??$max@_K@std@@YAAEB_KAEB_K0@Z DB 060H
	DD	imagerel $ip2state$??$max@_K@std@@YAAEB_KAEB_K0@Z
xdata	ENDS
;	COMDAT xdata
xdata	SEGMENT
$unwind$??$max@_K@std@@YAAEB_KAEB_K0@Z DD 025052f19H
	DD	01132318H
	DD	0700c0021H
	DD	0500bH
	DD	imagerel __CxxFrameHandler4
	DD	imagerel $cppxdata$??$max@_K@std@@YAAEB_KAEB_K0@Z
xdata	ENDS
;	COMDAT xdata
xdata	SEGMENT
$ip2state$??$_Unfancy@D@std@@YAPEADPEAD@Z DB 02H
	DB	00H
	DB	00H
xdata	ENDS
;	COMDAT xdata
xdata	SEGMENT
$cppxdata$??$_Unfancy@D@std@@YAPEADPEAD@Z DB 060H
	DD	imagerel $ip2state$??$_Unfancy@D@std@@YAPEADPEAD@Z
xdata	ENDS
;	COMDAT xdata
xdata	SEGMENT
$unwind$??$_Unfancy@D@std@@YAPEADPEAD@Z DD 025052a19H
	DD	010e2313H
	DD	07007001dH
	DD	05006H
	DD	imagerel __CxxFrameHandler4
	DD	imagerel $cppxdata$??$_Unfancy@D@std@@YAPEADPEAD@Z
xdata	ENDS
;	COMDAT xdata
xdata	SEGMENT
$ip2state$??$_Construct_in_place@PEADAEBQEAD@std@@YAXAEAPEADAEBQEAD@Z DB 02H
	DB	00H
	DB	00H
xdata	ENDS
;	COMDAT xdata
xdata	SEGMENT
$cppxdata$??$_Construct_in_place@PEADAEBQEAD@std@@YAXAEAPEADAEBQEAD@Z DB 060H
	DD	imagerel $ip2state$??$_Construct_in_place@PEADAEBQEAD@std@@YAXAEAPEADAEBQEAD@Z
xdata	ENDS
;	COMDAT xdata
xdata	SEGMENT
$unwind$??$_Construct_in_place@PEADAEBQEAD@std@@YAXAEAPEADAEBQEAD@Z DD 025052f19H
	DD	01132318H
	DD	0700c0021H
	DD	0500bH
	DD	imagerel __CxxFrameHandler4
	DD	imagerel $cppxdata$??$_Construct_in_place@PEADAEBQEAD@std@@YAXAEAPEADAEBQEAD@Z
xdata	ENDS
;	COMDAT xdata
xdata	SEGMENT
$unwind$??$_Reallocate_for@V<lambda_66f57f934f28d61049862f64df852ff0>@@PEBD@?$basic_string@DU?$char_traits@D@std@@V?$allocator@D@2@@std@@AEAAAEAV01@_KV<lambda_66f57f934f28d61049862f64df852ff0>@@PEBD@Z DD 025054a19H
	DD	011d2322H
	DD	07016002dH
	DD	05015H
	DD	imagerel __GSHandlerCheck
	DD	0158H
xdata	ENDS
;	COMDAT CONST
CONST	SEGMENT
??$_Reallocate_for@V<lambda_66f57f934f28d61049862f64df852ff0>@@PEBD@?$basic_string@DU?$char_traits@D@std@@V?$allocator@D@2@@std@@AEAAAEAV01@_KV<lambda_66f57f934f28d61049862f64df852ff0>@@PEBD@Z$rtcName$0 DB 05fH ; std::basic_string<char,std::char_traits<char>,std::allocator<char> >::_Reallocate_for<<lambda_66f57f934f28d61049862f64df852ff0>,char const *>
	DB	04eH
	DB	065H
	DB	077H
	DB	05fH
	DB	070H
	DB	074H
	DB	072H
	DB	00H
	ORG $+7
??$_Reallocate_for@V<lambda_66f57f934f28d61049862f64df852ff0>@@PEBD@?$basic_string@DU?$char_traits@D@std@@V?$allocator@D@2@@std@@AEAAAEAV01@_KV<lambda_66f57f934f28d61049862f64df852ff0>@@PEBD@Z$rtcVarDesc DD 088H ; std::basic_string<char,std::char_traits<char>,std::allocator<char> >::_Reallocate_for<<lambda_66f57f934f28d61049862f64df852ff0>,char const *>
	DD	08H
	DQ	FLAT:??$_Reallocate_for@V<lambda_66f57f934f28d61049862f64df852ff0>@@PEBD@?$basic_string@DU?$char_traits@D@std@@V?$allocator@D@2@@std@@AEAAAEAV01@_KV<lambda_66f57f934f28d61049862f64df852ff0>@@PEBD@Z$rtcName$0
	ORG $+48
??$_Reallocate_for@V<lambda_66f57f934f28d61049862f64df852ff0>@@PEBD@?$basic_string@DU?$char_traits@D@std@@V?$allocator@D@2@@std@@AEAAAEAV01@_KV<lambda_66f57f934f28d61049862f64df852ff0>@@PEBD@Z$rtcFrameData DD 01H ; std::basic_string<char,std::char_traits<char>,std::allocator<char> >::_Reallocate_for<<lambda_66f57f934f28d61049862f64df852ff0>,char const *>
	DD	00H
	DQ	FLAT:??$_Reallocate_for@V<lambda_66f57f934f28d61049862f64df852ff0>@@PEBD@?$basic_string@DU?$char_traits@D@std@@V?$allocator@D@2@@std@@AEAAAEAV01@_KV<lambda_66f57f934f28d61049862f64df852ff0>@@PEBD@Z$rtcVarDesc
CONST	ENDS
;	COMDAT xdata
xdata	SEGMENT
$unwind$??R<lambda_66f57f934f28d61049862f64df852ff0>@@QEBAXQEAD_KQEBD@Z DD 025053901H
	DD	011d2322H
	DD	070160021H
	DD	05015H
xdata	ENDS
;	COMDAT xdata
xdata	SEGMENT
$ip2state$??$_Destroy_in_place@PEAD@std@@YAXAEAPEAD@Z DB 02H
	DB	00H
	DB	00H
xdata	ENDS
;	COMDAT xdata
xdata	SEGMENT
$cppxdata$??$_Destroy_in_place@PEAD@std@@YAXAEAPEAD@Z DB 060H
	DD	imagerel $ip2state$??$_Destroy_in_place@PEAD@std@@YAXAEAPEAD@Z
xdata	ENDS
;	COMDAT xdata
xdata	SEGMENT
$unwind$??$_Destroy_in_place@PEAD@std@@YAXAEAPEAD@Z DD 025052a19H
	DD	010e2313H
	DD	07007001dH
	DD	05006H
	DD	imagerel __CxxFrameHandler4
	DD	imagerel $cppxdata$??$_Destroy_in_place@PEAD@std@@YAXAEAPEAD@Z
xdata	ENDS
;	COMDAT xdata
xdata	SEGMENT
$ip2state$??$_Unfancy@U_Container_proxy@std@@@std@@YAPEAU_Container_proxy@0@PEAU10@@Z DB 02H
	DB	00H
	DB	00H
xdata	ENDS
;	COMDAT xdata
xdata	SEGMENT
$cppxdata$??$_Unfancy@U_Container_proxy@std@@@std@@YAPEAU_Container_proxy@0@PEAU10@@Z DB 060H
	DD	imagerel $ip2state$??$_Unfancy@U_Container_proxy@std@@@std@@YAPEAU_Container_proxy@0@PEAU10@@Z
xdata	ENDS
;	COMDAT xdata
xdata	SEGMENT
$unwind$??$_Unfancy@U_Container_proxy@std@@@std@@YAPEAU_Container_proxy@0@PEAU10@@Z DD 025052a19H
	DD	010e2313H
	DD	07007001dH
	DD	05006H
	DD	imagerel __CxxFrameHandler4
	DD	imagerel $cppxdata$??$_Unfancy@U_Container_proxy@std@@@std@@YAPEAU_Container_proxy@0@PEAU10@@Z
xdata	ENDS
;	COMDAT xdata
xdata	SEGMENT
$unwind$??$?0$$V@?$_Compressed_pair@V?$allocator@D@std@@V?$_String_val@U?$_Simple_types@D@std@@@2@$00@std@@QEAA@U_Zero_then_variadic_args_t@1@@Z DD 025052e01H
	DD	01122317H
	DD	0700b001dH
	DD	0500aH
xdata	ENDS
;	COMDAT xdata
xdata	SEGMENT
$ip2state$??$?0D@?$allocator@U_Container_proxy@std@@@std@@QEAA@AEBV?$allocator@D@1@@Z DB 02H
	DB	00H
	DB	00H
xdata	ENDS
;	COMDAT xdata
xdata	SEGMENT
$cppxdata$??$?0D@?$allocator@U_Container_proxy@std@@@std@@QEAA@AEBV?$allocator@D@1@@Z DB 060H
	DD	imagerel $ip2state$??$?0D@?$allocator@U_Container_proxy@std@@@std@@QEAA@AEBV?$allocator@D@1@@Z
xdata	ENDS
;	COMDAT xdata
xdata	SEGMENT
$unwind$??$?0D@?$allocator@U_Container_proxy@std@@@std@@QEAA@AEBV?$allocator@D@1@@Z DD 025052f19H
	DD	01132318H
	DD	0700c001dH
	DD	0500bH
	DD	imagerel __CxxFrameHandler4
	DD	imagerel $cppxdata$??$?0D@?$allocator@U_Container_proxy@std@@@std@@QEAA@AEBV?$allocator@D@1@@Z
xdata	ENDS
;	COMDAT xdata
xdata	SEGMENT
$ip2state$??1?$_Container_proxy_ptr12@V?$allocator@U_Container_proxy@std@@@std@@@std@@QEAA@XZ DB 02H
	DB	00H
	DB	00H
xdata	ENDS
;	COMDAT xdata
xdata	SEGMENT
$cppxdata$??1?$_Container_proxy_ptr12@V?$allocator@U_Container_proxy@std@@@std@@@std@@QEAA@XZ DB 060H
	DD	imagerel $ip2state$??1?$_Container_proxy_ptr12@V?$allocator@U_Container_proxy@std@@@std@@@std@@QEAA@XZ
xdata	ENDS
;	COMDAT xdata
xdata	SEGMENT
$unwind$??1?$_Container_proxy_ptr12@V?$allocator@U_Container_proxy@std@@@std@@@std@@QEAA@XZ DD 025052a19H
	DD	010e2313H
	DD	07007001dH
	DD	05006H
	DD	imagerel __CxxFrameHandler4
	DD	imagerel $cppxdata$??1?$_Container_proxy_ptr12@V?$allocator@U_Container_proxy@std@@@std@@@std@@QEAA@XZ
xdata	ENDS
;	COMDAT xdata
xdata	SEGMENT
$unwind$??0?$_Container_proxy_ptr12@V?$allocator@U_Container_proxy@std@@@std@@@std@@QEAA@AEAV?$allocator@U_Container_proxy@std@@@1@AEAU_Container_base12@1@@Z DD 025053401H
	DD	0118231dH
	DD	070110021H
	DD	05010H
xdata	ENDS
;	COMDAT xdata
xdata	SEGMENT
$ip2state$??$_Delete_plain_internal@V?$allocator@U_Container_proxy@std@@@std@@@std@@YAXAEAV?$allocator@U_Container_proxy@std@@@0@QEAU_Container_proxy@0@@Z DB 02H
	DB	00H
	DB	00H
xdata	ENDS
;	COMDAT xdata
xdata	SEGMENT
$cppxdata$??$_Delete_plain_internal@V?$allocator@U_Container_proxy@std@@@std@@@std@@YAXAEAV?$allocator@U_Container_proxy@std@@@0@QEAU_Container_proxy@0@@Z DB 060H
	DD	imagerel $ip2state$??$_Delete_plain_internal@V?$allocator@U_Container_proxy@std@@@std@@@std@@YAXAEAV?$allocator@U_Container_proxy@std@@@0@QEAU_Container_proxy@0@@Z
xdata	ENDS
;	COMDAT xdata
xdata	SEGMENT
$unwind$??$_Delete_plain_internal@V?$allocator@U_Container_proxy@std@@@std@@@std@@YAXAEAV?$allocator@U_Container_proxy@std@@@0@QEAU_Container_proxy@0@@Z DD 025052f19H
	DD	01132318H
	DD	0700c001dH
	DD	0500bH
	DD	imagerel __CxxFrameHandler4
	DD	imagerel $cppxdata$??$_Delete_plain_internal@V?$allocator@U_Container_proxy@std@@@std@@@std@@YAXAEAV?$allocator@U_Container_proxy@std@@@0@QEAU_Container_proxy@0@@Z
xdata	ENDS
;	COMDAT xdata
xdata	SEGMENT
$unwind$?allocate@?$allocator@U_Container_proxy@std@@@std@@QEAAPEAU_Container_proxy@2@_K@Z DD 025052f01H
	DD	01132318H
	DD	0700c001dH
	DD	0500bH
xdata	ENDS
;	COMDAT xdata
xdata	SEGMENT
$ip2state$??$min@_K@std@@YAAEB_KAEB_K0@Z DB 02H
	DB	00H
	DB	00H
xdata	ENDS
;	COMDAT xdata
xdata	SEGMENT
$cppxdata$??$min@_K@std@@YAAEB_KAEB_K0@Z DB 060H
	DD	imagerel $ip2state$??$min@_K@std@@YAAEB_KAEB_K0@Z
xdata	ENDS
;	COMDAT xdata
xdata	SEGMENT
$unwind$??$min@_K@std@@YAAEB_KAEB_K0@Z DD 025052f19H
	DD	01132318H
	DD	0700c0021H
	DD	0500bH
	DD	imagerel __CxxFrameHandler4
	DD	imagerel $cppxdata$??$min@_K@std@@YAAEB_KAEB_K0@Z
xdata	ENDS
;	COMDAT xdata
xdata	SEGMENT
$unwind$??Bsentry@?$basic_ostream@DU?$char_traits@D@std@@@std@@QEBA_NXZ DD 025052a01H
	DD	010e2313H
	DD	07007001dH
	DD	05006H
xdata	ENDS
;	COMDAT xdata
xdata	SEGMENT
$ip2state$??1sentry@?$basic_ostream@DU?$char_traits@D@std@@@std@@QEAA@XZ DB 02H
	DB	00H
	DB	00H
xdata	ENDS
;	COMDAT xdata
xdata	SEGMENT
$cppxdata$??1sentry@?$basic_ostream@DU?$char_traits@D@std@@@std@@QEAA@XZ DB 060H
	DD	imagerel $ip2state$??1sentry@?$basic_ostream@DU?$char_traits@D@std@@@std@@QEAA@XZ
xdata	ENDS
;	COMDAT xdata
xdata	SEGMENT
$unwind$??1sentry@?$basic_ostream@DU?$char_traits@D@std@@@std@@QEAA@XZ DD 025052a19H
	DD	010e2313H
	DD	070070021H
	DD	05006H
	DD	imagerel __CxxFrameHandler4
	DD	imagerel $cppxdata$??1sentry@?$basic_ostream@DU?$char_traits@D@std@@@std@@QEAA@XZ
xdata	ENDS
;	COMDAT xdata
xdata	SEGMENT
$unwind$?dtor$0@?0???0sentry@?$basic_ostream@DU?$char_traits@D@std@@@std@@QEAA@AEAV12@@Z@4HA DD 031001H
	DD	0700c4210H
	DD	0500bH
xdata	ENDS
;	COMDAT xdata
xdata	SEGMENT
$ip2state$??0sentry@?$basic_ostream@DU?$char_traits@D@std@@@std@@QEAA@AEAV12@@Z DB 06H
	DB	00H
	DB	00H
	DB	09eH
	DB	02H
	DB	0f1H, 02H
	DB	00H
xdata	ENDS
;	COMDAT xdata
xdata	SEGMENT
$stateUnwindMap$??0sentry@?$basic_ostream@DU?$char_traits@D@std@@@std@@QEAA@AEAV12@@Z DB 02H
	DB	0eH
	DD	imagerel ?dtor$0@?0???0sentry@?$basic_ostream@DU?$char_traits@D@std@@@std@@QEAA@AEAV12@@Z@4HA
xdata	ENDS
;	COMDAT xdata
xdata	SEGMENT
$cppxdata$??0sentry@?$basic_ostream@DU?$char_traits@D@std@@@std@@QEAA@AEAV12@@Z DB 028H
	DD	imagerel $stateUnwindMap$??0sentry@?$basic_ostream@DU?$char_traits@D@std@@@std@@QEAA@AEAV12@@Z
	DD	imagerel $ip2state$??0sentry@?$basic_ostream@DU?$char_traits@D@std@@@std@@QEAA@AEAV12@@Z
xdata	ENDS
;	COMDAT xdata
xdata	SEGMENT
$unwind$??0sentry@?$basic_ostream@DU?$char_traits@D@std@@@std@@QEAA@AEAV12@@Z DD 025052f11H
	DD	01132318H
	DD	0700c0021H
	DD	0500bH
	DD	imagerel __CxxFrameHandler4
	DD	imagerel $cppxdata$??0sentry@?$basic_ostream@DU?$char_traits@D@std@@@std@@QEAA@AEAV12@@Z
xdata	ENDS
;	COMDAT xdata
xdata	SEGMENT
$ip2state$??1_Sentry_base@?$basic_ostream@DU?$char_traits@D@std@@@std@@QEAA@XZ DB 02H
	DB	00H
	DB	00H
xdata	ENDS
;	COMDAT xdata
xdata	SEGMENT
$cppxdata$??1_Sentry_base@?$basic_ostream@DU?$char_traits@D@std@@@std@@QEAA@XZ DB 060H
	DD	imagerel $ip2state$??1_Sentry_base@?$basic_ostream@DU?$char_traits@D@std@@@std@@QEAA@XZ
xdata	ENDS
;	COMDAT xdata
xdata	SEGMENT
$unwind$??1_Sentry_base@?$basic_ostream@DU?$char_traits@D@std@@@std@@QEAA@XZ DD 025052a19H
	DD	010e2313H
	DD	070070021H
	DD	05006H
	DD	imagerel __CxxFrameHandler4
	DD	imagerel $cppxdata$??1_Sentry_base@?$basic_ostream@DU?$char_traits@D@std@@@std@@QEAA@XZ
xdata	ENDS
;	COMDAT xdata
xdata	SEGMENT
$unwind$??0_Sentry_base@?$basic_ostream@DU?$char_traits@D@std@@@std@@QEAA@AEAV12@@Z DD 025052f01H
	DD	01132318H
	DD	0700c0021H
	DD	0500bH
xdata	ENDS
;	COMDAT xdata
xdata	SEGMENT
$unwind$??$endl@DU?$char_traits@D@std@@@std@@YAAEAV?$basic_ostream@DU?$char_traits@D@std@@@0@AEAV10@@Z DD 025052a01H
	DD	010e2313H
	DD	07007001dH
	DD	05006H
xdata	ENDS
;	COMDAT xdata
xdata	SEGMENT
$unwind$main$dtor$0 DD 031001H
	DD	0700c4210H
	DD	0500bH
xdata	ENDS
;	COMDAT xdata
xdata	SEGMENT
$ip2state$main DB 06H
	DB	00H
	DB	00H
	DB	'M', 05H
	DB	02H
	DB	')', 02H
	DB	00H
xdata	ENDS
;	COMDAT xdata
xdata	SEGMENT
$stateUnwindMap$main DB 02H
	DB	0eH
	DD	imagerel main$dtor$0
xdata	ENDS
;	COMDAT xdata
xdata	SEGMENT
$cppxdata$main DB 028H
	DD	imagerel $stateUnwindMap$main
	DD	imagerel $ip2state$main
xdata	ENDS
;	COMDAT xdata
xdata	SEGMENT
$unwind$main DD	025052f19H
	DD	010a230fH
	DD	070030051H
	DD	05002H
	DD	imagerel __GSHandlerCheck_EH4
	DD	imagerel $cppxdata$main
	DD	027aH
xdata	ENDS
;	COMDAT CONST
CONST	SEGMENT
main$rtcName$0 DB 06dH
	DB	079H
	DB	054H
	DB	065H
	DB	078H
	DB	074H
	DB	00H
	ORG $+9
main$rtcVarDesc DD 0c8H
	DD	028H
	DQ	FLAT:main$rtcName$0
	ORG $+48
main$rtcFrameData DD 01H
	DD	00H
	DQ	FLAT:main$rtcVarDesc
CONST	ENDS
;	COMDAT xdata
xdata	SEGMENT
$unwind$?notmain@@YAHXZ DD 025051e01H
	DD	010a230fH
	DD	070030029H
	DD	05002H
xdata	ENDS
;	COMDAT xdata
xdata	SEGMENT
$unwind$?inout@@YAHXZ DD 025052f19H
	DD	010a230fH
	DD	070030021H
	DD	05002H
	DD	imagerel __GSHandlerCheck
	DD	0f8H
xdata	ENDS
;	COMDAT CONST
CONST	SEGMENT
?inout@@YAHXZ$rtcName$0 DB 078H				; inout
	DB	00H
	ORG $+14
?inout@@YAHXZ$rtcVarDesc DD 024H			; inout
	DD	04H
	DQ	FLAT:?inout@@YAHXZ$rtcName$0
	ORG $+48
?inout@@YAHXZ$rtcFrameData DD 01H			; inout
	DD	00H
	DQ	FLAT:?inout@@YAHXZ$rtcVarDesc
CONST	ENDS
;	COMDAT xdata
xdata	SEGMENT
$unwind$?catch$1@?0???$?6U?$char_traits@D@std@@@std@@YAAEAV?$basic_ostream@DU?$char_traits@D@std@@@0@AEAV10@PEBD@Z@4HA DD 031001H
	DD	0700c4210H
	DD	0500bH
xdata	ENDS
;	COMDAT xdata
xdata	SEGMENT
$unwind$?dtor$0@?0???$?6U?$char_traits@D@std@@@std@@YAAEAV?$basic_ostream@DU?$char_traits@D@std@@@0@AEAV10@PEBD@Z@4HA DD 031001H
	DD	0700c4210H
	DD	0500bH
xdata	ENDS
;	COMDAT xdata
xdata	SEGMENT
$ip2state$??$?6U?$char_traits@D@std@@@std@@YAAEAV?$basic_ostream@DU?$char_traits@D@std@@@0@AEAV10@PEBD@Z DB 0aH
	DB	00H
	DB	00H
	DB	'9', 04H
	DB	02H
	DB	'<'
	DB	04H
	DB	095H, 09H
	DB	02H
	DB	't'
	DB	00H
xdata	ENDS
;	COMDAT xdata
xdata	SEGMENT
$handlerMap$??$?6U?$char_traits@D@std@@@std@@YAAEAV?$basic_ostream@DU?$char_traits@D@std@@@0@AEAV10@PEBD@Z DB 02H
	DB	01H
	DB	080H
	DD	imagerel ?catch$1@?0???$?6U?$char_traits@D@std@@@std@@YAAEAV?$basic_ostream@DU?$char_traits@D@std@@@0@AEAV10@PEBD@Z@4HA
xdata	ENDS
;	COMDAT xdata
xdata	SEGMENT
$tryMap$??$?6U?$char_traits@D@std@@@std@@YAAEAV?$basic_ostream@DU?$char_traits@D@std@@@0@AEAV10@PEBD@Z DB 02H
	DB	02H
	DB	02H
	DB	04H
	DD	imagerel $handlerMap$??$?6U?$char_traits@D@std@@@std@@YAAEAV?$basic_ostream@DU?$char_traits@D@std@@@0@AEAV10@PEBD@Z
xdata	ENDS
;	COMDAT xdata
xdata	SEGMENT
$stateUnwindMap$??$?6U?$char_traits@D@std@@@std@@YAAEAV?$basic_ostream@DU?$char_traits@D@std@@@0@AEAV10@PEBD@Z DB 06H
	DB	0eH
	DD	imagerel ?dtor$0@?0???$?6U?$char_traits@D@std@@@std@@YAAEAV?$basic_ostream@DU?$char_traits@D@std@@@0@AEAV10@PEBD@Z@4HA
	DB	028H
	DB	030H
xdata	ENDS
;	COMDAT xdata
xdata	SEGMENT
$cppxdata$??$?6U?$char_traits@D@std@@@std@@YAAEAV?$basic_ostream@DU?$char_traits@D@std@@@0@AEAV10@PEBD@Z DB 038H
	DD	imagerel $stateUnwindMap$??$?6U?$char_traits@D@std@@@std@@YAAEAV?$basic_ostream@DU?$char_traits@D@std@@@0@AEAV10@PEBD@Z
	DD	imagerel $tryMap$??$?6U?$char_traits@D@std@@@std@@YAAEAV?$basic_ostream@DU?$char_traits@D@std@@@0@AEAV10@PEBD@Z
	DD	imagerel $ip2state$??$?6U?$char_traits@D@std@@@std@@YAAEAV?$basic_ostream@DU?$char_traits@D@std@@@0@AEAV10@PEBD@Z
xdata	ENDS
;	COMDAT xdata
xdata	SEGMENT
$unwind$??$?6U?$char_traits@D@std@@@std@@YAAEAV?$basic_ostream@DU?$char_traits@D@std@@@0@AEAV10@PEBD@Z DD 025054019H
	DD	01132318H
	DD	0700c0045H
	DD	0500bH
	DD	imagerel __GSHandlerCheck_EH4
	DD	imagerel $cppxdata$??$?6U?$char_traits@D@std@@@std@@YAAEAV?$basic_ostream@DU?$char_traits@D@std@@@0@AEAV10@PEBD@Z
	DD	021bH
xdata	ENDS
;	COMDAT CONST
CONST	SEGMENT
??$?6U?$char_traits@D@std@@@std@@YAAEAV?$basic_ostream@DU?$char_traits@D@std@@@0@AEAV10@PEBD@Z$rtcName$0 DB 05fH ; std::operator<<<std::char_traits<char> >
	DB	04fH
	DB	06bH
	DB	00H
	ORG $+12
??$?6U?$char_traits@D@std@@@std@@YAAEAV?$basic_ostream@DU?$char_traits@D@std@@@0@AEAV10@PEBD@Z$rtcVarDesc DD 088H ; std::operator<<<std::char_traits<char> >
	DD	010H
	DQ	FLAT:??$?6U?$char_traits@D@std@@@std@@YAAEAV?$basic_ostream@DU?$char_traits@D@std@@@0@AEAV10@PEBD@Z$rtcName$0
	ORG $+48
??$?6U?$char_traits@D@std@@@std@@YAAEAV?$basic_ostream@DU?$char_traits@D@std@@@0@AEAV10@PEBD@Z$rtcFrameData DD 01H ; std::operator<<<std::char_traits<char> >
	DD	00H
	DQ	FLAT:??$?6U?$char_traits@D@std@@@std@@YAAEAV?$basic_ostream@DU?$char_traits@D@std@@@0@AEAV10@PEBD@Z$rtcVarDesc
CONST	ENDS
;	COMDAT xdata
xdata	SEGMENT
$unwind$?calc@@YAHXZ DD 025052f19H
	DD	010a230fH
	DD	070030029H
	DD	05002H
	DD	imagerel __GSHandlerCheck
	DD	0138H
xdata	ENDS
;	COMDAT CONST
CONST	SEGMENT
?calc@@YAHXZ$rtcName$0 DB 078H				; calc
	DB	00H
	ORG $+2
?calc@@YAHXZ$rtcName$1 DB 079H				; calc
	DB	00H
	ORG $+10
?calc@@YAHXZ$rtcVarDesc DD 044H				; calc
	DD	04H
	DQ	FLAT:?calc@@YAHXZ$rtcName$1
	DD	024H
	DD	04H
	DQ	FLAT:?calc@@YAHXZ$rtcName$0
	ORG $+96
?calc@@YAHXZ$rtcFrameData DD 02H			; calc
	DD	00H
	DQ	FLAT:?calc@@YAHXZ$rtcVarDesc
CONST	ENDS
;	COMDAT xdata
xdata	SEGMENT
$unwind$?demomain@@YAHXZ DD 025051e01H
	DD	010a230fH
	DD	07003001dH
	DD	05002H
xdata	ENDS
;	COMDAT xdata
xdata	SEGMENT
$unwind$??1?$_Compressed_pair@V?$allocator@D@std@@V?$_String_val@U?$_Simple_types@D@std@@@2@$00@std@@QEAA@XZ DD 025052a01H
	DD	010e2313H
	DD	07007001dH
	DD	05006H
xdata	ENDS
;	COMDAT xdata
xdata	SEGMENT
$ip2state$?_Get_first@?$_Compressed_pair@V?$allocator@D@std@@V?$_String_val@U?$_Simple_types@D@std@@@2@$00@std@@QEBAAEBV?$allocator@D@2@XZ DB 02H
	DB	00H
	DB	00H
xdata	ENDS
;	COMDAT xdata
xdata	SEGMENT
$cppxdata$?_Get_first@?$_Compressed_pair@V?$allocator@D@std@@V?$_String_val@U?$_Simple_types@D@std@@@2@$00@std@@QEBAAEBV?$allocator@D@2@XZ DB 060H
	DD	imagerel $ip2state$?_Get_first@?$_Compressed_pair@V?$allocator@D@std@@V?$_String_val@U?$_Simple_types@D@std@@@2@$00@std@@QEBAAEBV?$allocator@D@2@XZ
xdata	ENDS
;	COMDAT xdata
xdata	SEGMENT
$unwind$?_Get_first@?$_Compressed_pair@V?$allocator@D@std@@V?$_String_val@U?$_Simple_types@D@std@@@2@$00@std@@QEBAAEBV?$allocator@D@2@XZ DD 025052a19H
	DD	010e2313H
	DD	07007001dH
	DD	05006H
	DD	imagerel __CxxFrameHandler4
	DD	imagerel $cppxdata$?_Get_first@?$_Compressed_pair@V?$allocator@D@std@@V?$_String_val@U?$_Simple_types@D@std@@@2@$00@std@@QEBAAEBV?$allocator@D@2@XZ
xdata	ENDS
;	COMDAT xdata
xdata	SEGMENT
$ip2state$?_Get_first@?$_Compressed_pair@V?$allocator@D@std@@V?$_String_val@U?$_Simple_types@D@std@@@2@$00@std@@QEAAAEAV?$allocator@D@2@XZ DB 02H
	DB	00H
	DB	00H
xdata	ENDS
;	COMDAT xdata
xdata	SEGMENT
$cppxdata$?_Get_first@?$_Compressed_pair@V?$allocator@D@std@@V?$_String_val@U?$_Simple_types@D@std@@@2@$00@std@@QEAAAEAV?$allocator@D@2@XZ DB 060H
	DD	imagerel $ip2state$?_Get_first@?$_Compressed_pair@V?$allocator@D@std@@V?$_String_val@U?$_Simple_types@D@std@@@2@$00@std@@QEAAAEAV?$allocator@D@2@XZ
xdata	ENDS
;	COMDAT xdata
xdata	SEGMENT
$unwind$?_Get_first@?$_Compressed_pair@V?$allocator@D@std@@V?$_String_val@U?$_Simple_types@D@std@@@2@$00@std@@QEAAAEAV?$allocator@D@2@XZ DD 025052a19H
	DD	010e2313H
	DD	07007001dH
	DD	05006H
	DD	imagerel __CxxFrameHandler4
	DD	imagerel $cppxdata$?_Get_first@?$_Compressed_pair@V?$allocator@D@std@@V?$_String_val@U?$_Simple_types@D@std@@@2@$00@std@@QEAAAEAV?$allocator@D@2@XZ
xdata	ENDS
;	COMDAT xdata
xdata	SEGMENT
$ip2state$?_Getal@?$basic_string@DU?$char_traits@D@std@@V?$allocator@D@2@@std@@AEBAAEBV?$allocator@D@2@XZ DB 02H
	DB	00H
	DB	00H
xdata	ENDS
;	COMDAT xdata
xdata	SEGMENT
$cppxdata$?_Getal@?$basic_string@DU?$char_traits@D@std@@V?$allocator@D@2@@std@@AEBAAEBV?$allocator@D@2@XZ DB 060H
	DD	imagerel $ip2state$?_Getal@?$basic_string@DU?$char_traits@D@std@@V?$allocator@D@2@@std@@AEBAAEBV?$allocator@D@2@XZ
xdata	ENDS
;	COMDAT xdata
xdata	SEGMENT
$unwind$?_Getal@?$basic_string@DU?$char_traits@D@std@@V?$allocator@D@2@@std@@AEBAAEBV?$allocator@D@2@XZ DD 025052a19H
	DD	010e2313H
	DD	07007001dH
	DD	05006H
	DD	imagerel __CxxFrameHandler4
	DD	imagerel $cppxdata$?_Getal@?$basic_string@DU?$char_traits@D@std@@V?$allocator@D@2@@std@@AEBAAEBV?$allocator@D@2@XZ
xdata	ENDS
;	COMDAT xdata
xdata	SEGMENT
$ip2state$?_Getal@?$basic_string@DU?$char_traits@D@std@@V?$allocator@D@2@@std@@AEAAAEAV?$allocator@D@2@XZ DB 02H
	DB	00H
	DB	00H
xdata	ENDS
;	COMDAT xdata
xdata	SEGMENT
$cppxdata$?_Getal@?$basic_string@DU?$char_traits@D@std@@V?$allocator@D@2@@std@@AEAAAEAV?$allocator@D@2@XZ DB 060H
	DD	imagerel $ip2state$?_Getal@?$basic_string@DU?$char_traits@D@std@@V?$allocator@D@2@@std@@AEAAAEAV?$allocator@D@2@XZ
xdata	ENDS
;	COMDAT xdata
xdata	SEGMENT
$unwind$?_Getal@?$basic_string@DU?$char_traits@D@std@@V?$allocator@D@2@@std@@AEAAAEAV?$allocator@D@2@XZ DD 025052a19H
	DD	010e2313H
	DD	07007001dH
	DD	05006H
	DD	imagerel __CxxFrameHandler4
	DD	imagerel $cppxdata$?_Getal@?$basic_string@DU?$char_traits@D@std@@V?$allocator@D@2@@std@@AEAAAEAV?$allocator@D@2@XZ
xdata	ENDS
;	COMDAT xdata
xdata	SEGMENT
$ip2state$?_Tidy_deallocate@?$basic_string@DU?$char_traits@D@std@@V?$allocator@D@2@@std@@AEAAXXZ DB 02H
	DB	00H
	DB	00H
xdata	ENDS
;	COMDAT xdata
xdata	SEGMENT
$cppxdata$?_Tidy_deallocate@?$basic_string@DU?$char_traits@D@std@@V?$allocator@D@2@@std@@AEAAXXZ DB 060H
	DD	imagerel $ip2state$?_Tidy_deallocate@?$basic_string@DU?$char_traits@D@std@@V?$allocator@D@2@@std@@AEAAXXZ
xdata	ENDS
;	COMDAT xdata
xdata	SEGMENT
$unwind$?_Tidy_deallocate@?$basic_string@DU?$char_traits@D@std@@V?$allocator@D@2@@std@@AEAAXXZ DD 025052a19H
	DD	010e2313H
	DD	070070029H
	DD	05006H
	DD	imagerel __CxxFrameHandler4
	DD	imagerel $cppxdata$?_Tidy_deallocate@?$basic_string@DU?$char_traits@D@std@@V?$allocator@D@2@@std@@AEAAXXZ
xdata	ENDS
;	COMDAT xdata
xdata	SEGMENT
$ip2state$?_Tidy_init@?$basic_string@DU?$char_traits@D@std@@V?$allocator@D@2@@std@@AEAAXXZ DB 02H
	DB	00H
	DB	00H
xdata	ENDS
;	COMDAT xdata
xdata	SEGMENT
$cppxdata$?_Tidy_init@?$basic_string@DU?$char_traits@D@std@@V?$allocator@D@2@@std@@AEAAXXZ DB 060H
	DD	imagerel $ip2state$?_Tidy_init@?$basic_string@DU?$char_traits@D@std@@V?$allocator@D@2@@std@@AEAAXXZ
xdata	ENDS
;	COMDAT xdata
xdata	SEGMENT
$unwind$?_Tidy_init@?$basic_string@DU?$char_traits@D@std@@V?$allocator@D@2@@std@@AEAAXXZ DD 025052a19H
	DD	010e2313H
	DD	070070021H
	DD	05006H
	DD	imagerel __CxxFrameHandler4
	DD	imagerel $cppxdata$?_Tidy_init@?$basic_string@DU?$char_traits@D@std@@V?$allocator@D@2@@std@@AEAAXXZ
xdata	ENDS
;	COMDAT xdata
xdata	SEGMENT
$ip2state$?_Calculate_growth@?$basic_string@DU?$char_traits@D@std@@V?$allocator@D@2@@std@@AEBA_K_K@Z DB 02H
	DB	00H
	DB	00H
xdata	ENDS
;	COMDAT xdata
xdata	SEGMENT
$cppxdata$?_Calculate_growth@?$basic_string@DU?$char_traits@D@std@@V?$allocator@D@2@@std@@AEBA_K_K@Z DB 060H
	DD	imagerel $ip2state$?_Calculate_growth@?$basic_string@DU?$char_traits@D@std@@V?$allocator@D@2@@std@@AEBA_K_K@Z
xdata	ENDS
;	COMDAT xdata
xdata	SEGMENT
$unwind$?_Calculate_growth@?$basic_string@DU?$char_traits@D@std@@V?$allocator@D@2@@std@@AEBA_K_K@Z DD 025052f19H
	DD	01132318H
	DD	0700c001dH
	DD	0500bH
	DD	imagerel __CxxFrameHandler4
	DD	imagerel $cppxdata$?_Calculate_growth@?$basic_string@DU?$char_traits@D@std@@V?$allocator@D@2@@std@@AEBA_K_K@Z
xdata	ENDS
;	COMDAT xdata
xdata	SEGMENT
$ip2state$?_Calculate_growth@?$basic_string@DU?$char_traits@D@std@@V?$allocator@D@2@@std@@CA_K_K00@Z DB 02H
	DB	00H
	DB	00H
xdata	ENDS
;	COMDAT xdata
xdata	SEGMENT
$cppxdata$?_Calculate_growth@?$basic_string@DU?$char_traits@D@std@@V?$allocator@D@2@@std@@CA_K_K00@Z DB 060H
	DD	imagerel $ip2state$?_Calculate_growth@?$basic_string@DU?$char_traits@D@std@@V?$allocator@D@2@@std@@CA_K_K00@Z
xdata	ENDS
;	COMDAT xdata
xdata	SEGMENT
$unwind$?_Calculate_growth@?$basic_string@DU?$char_traits@D@std@@V?$allocator@D@2@@std@@CA_K_K00@Z DD 025054519H
	DD	0118231dH
	DD	070110025H
	DD	05010H
	DD	imagerel __GSHandlerCheck_EH4
	DD	imagerel $cppxdata$?_Calculate_growth@?$basic_string@DU?$char_traits@D@std@@V?$allocator@D@2@@std@@CA_K_K00@Z
	DD	011bH
xdata	ENDS
;	COMDAT CONST
CONST	SEGMENT
?_Calculate_growth@?$basic_string@DU?$char_traits@D@std@@V?$allocator@D@2@@std@@CA_K_K00@Z$rtcName$0 DB 05fH ; std::basic_string<char,std::char_traits<char>,std::allocator<char> >::_Calculate_growth
	DB	04dH
	DB	061H
	DB	073H
	DB	06bH
	DB	065H
	DB	064H
	DB	00H
	ORG $+8
?_Calculate_growth@?$basic_string@DU?$char_traits@D@std@@V?$allocator@D@2@@std@@CA_K_K00@Z$rtcVarDesc DD 028H ; std::basic_string<char,std::char_traits<char>,std::allocator<char> >::_Calculate_growth
	DD	08H
	DQ	FLAT:?_Calculate_growth@?$basic_string@DU?$char_traits@D@std@@V?$allocator@D@2@@std@@CA_K_K00@Z$rtcName$0
	ORG $+48
?_Calculate_growth@?$basic_string@DU?$char_traits@D@std@@V?$allocator@D@2@@std@@CA_K_K00@Z$rtcFrameData DD 01H ; std::basic_string<char,std::char_traits<char>,std::allocator<char> >::_Calculate_growth
	DD	00H
	DQ	FLAT:?_Calculate_growth@?$basic_string@DU?$char_traits@D@std@@V?$allocator@D@2@@std@@CA_K_K00@Z$rtcVarDesc
CONST	ENDS
;	COMDAT xdata
xdata	SEGMENT
$ip2state$?max_size@?$basic_string@DU?$char_traits@D@std@@V?$allocator@D@2@@std@@QEBA_KXZ DB 02H
	DB	00H
	DB	00H
xdata	ENDS
;	COMDAT xdata
xdata	SEGMENT
$cppxdata$?max_size@?$basic_string@DU?$char_traits@D@std@@V?$allocator@D@2@@std@@QEBA_KXZ DB 060H
	DD	imagerel $ip2state$?max_size@?$basic_string@DU?$char_traits@D@std@@V?$allocator@D@2@@std@@QEBA_KXZ
xdata	ENDS
;	COMDAT xdata
xdata	SEGMENT
$unwind$?max_size@?$basic_string@DU?$char_traits@D@std@@V?$allocator@D@2@@std@@QEBA_KXZ DD 025053b19H
	DD	010e2313H
	DD	070070031H
	DD	05006H
	DD	imagerel __GSHandlerCheck_EH4
	DD	imagerel $cppxdata$?max_size@?$basic_string@DU?$char_traits@D@std@@V?$allocator@D@2@@std@@QEBA_KXZ
	DD	017bH
xdata	ENDS
;	COMDAT CONST
CONST	SEGMENT
?max_size@?$basic_string@DU?$char_traits@D@std@@V?$allocator@D@2@@std@@QEBA_KXZ$rtcName$0 DB 05fH ; std::basic_string<char,std::char_traits<char>,std::allocator<char> >::max_size
	DB	041H
	DB	06cH
	DB	06cH
	DB	06fH
	DB	063H
	DB	05fH
	DB	06dH
	DB	061H
	DB	078H
	DB	00H
	ORG $+5
?max_size@?$basic_string@DU?$char_traits@D@std@@V?$allocator@D@2@@std@@QEBA_KXZ$rtcVarDesc DD 028H ; std::basic_string<char,std::char_traits<char>,std::allocator<char> >::max_size
	DD	08H
	DQ	FLAT:?max_size@?$basic_string@DU?$char_traits@D@std@@V?$allocator@D@2@@std@@QEBA_KXZ$rtcName$0
	ORG $+48
?max_size@?$basic_string@DU?$char_traits@D@std@@V?$allocator@D@2@@std@@QEBA_KXZ$rtcFrameData DD 01H ; std::basic_string<char,std::char_traits<char>,std::allocator<char> >::max_size
	DD	00H
	DQ	FLAT:?max_size@?$basic_string@DU?$char_traits@D@std@@V?$allocator@D@2@@std@@QEBA_KXZ$rtcVarDesc
CONST	ENDS
;	COMDAT xdata
xdata	SEGMENT
$unwind$?assign@?$basic_string@DU?$char_traits@D@std@@V?$allocator@D@2@@std@@QEAAAEAV12@QEBD@Z DD 025052f01H
	DD	01132318H
	DD	0700c001dH
	DD	0500bH
xdata	ENDS
;	COMDAT xdata
xdata	SEGMENT
$unwind$?assign@?$basic_string@DU?$char_traits@D@std@@V?$allocator@D@2@@std@@QEAAAEAV12@QEBD_K@Z DD 025053401H
	DD	0118231dH
	DD	070110029H
	DD	05010H
xdata	ENDS
;	COMDAT xdata
xdata	SEGMENT
$ip2state$??1?$basic_string@DU?$char_traits@D@std@@V?$allocator@D@2@@std@@QEAA@XZ DB 02H
	DB	00H
	DB	00H
xdata	ENDS
;	COMDAT xdata
xdata	SEGMENT
$cppxdata$??1?$basic_string@DU?$char_traits@D@std@@V?$allocator@D@2@@std@@QEAA@XZ DB 060H
	DD	imagerel $ip2state$??1?$basic_string@DU?$char_traits@D@std@@V?$allocator@D@2@@std@@QEAA@XZ
xdata	ENDS
;	COMDAT xdata
xdata	SEGMENT
$unwind$??1?$basic_string@DU?$char_traits@D@std@@V?$allocator@D@2@@std@@QEAA@XZ DD 025053b19H
	DD	010e2313H
	DD	070070029H
	DD	05006H
	DD	imagerel __GSHandlerCheck_EH4
	DD	imagerel $cppxdata$??1?$basic_string@DU?$char_traits@D@std@@V?$allocator@D@2@@std@@QEAA@XZ
	DD	013bH
xdata	ENDS
;	COMDAT CONST
CONST	SEGMENT
??1?$basic_string@DU?$char_traits@D@std@@V?$allocator@D@2@@std@@QEAA@XZ$rtcName$0 DB 024H ; std::basic_string<char,std::char_traits<char>,std::allocator<char> >::~basic_string<char,std::char_traits<char>,std::allocator<char> >
	DB	053H
	DB	037H
	DB	00H
	ORG $+12
??1?$basic_string@DU?$char_traits@D@std@@V?$allocator@D@2@@std@@QEAA@XZ$rtcVarDesc DD 044H ; std::basic_string<char,std::char_traits<char>,std::allocator<char> >::~basic_string<char,std::char_traits<char>,std::allocator<char> >
	DD	01H
	DQ	FLAT:??1?$basic_string@DU?$char_traits@D@std@@V?$allocator@D@2@@std@@QEAA@XZ$rtcName$0
	ORG $+48
??1?$basic_string@DU?$char_traits@D@std@@V?$allocator@D@2@@std@@QEAA@XZ$rtcFrameData DD 01H ; std::basic_string<char,std::char_traits<char>,std::allocator<char> >::~basic_string<char,std::char_traits<char>,std::allocator<char> >
	DD	00H
	DQ	FLAT:??1?$basic_string@DU?$char_traits@D@std@@V?$allocator@D@2@@std@@QEAA@XZ$rtcVarDesc
CONST	ENDS
;	COMDAT xdata
xdata	SEGMENT
$unwind$?dtor$1@?0???0?$basic_string@DU?$char_traits@D@std@@V?$allocator@D@2@@std@@QEAA@QEBD@Z@4HA DD 031001H
	DD	0700c4210H
	DD	0500bH
xdata	ENDS
;	COMDAT xdata
xdata	SEGMENT
$unwind$?dtor$0@?0???0?$basic_string@DU?$char_traits@D@std@@V?$allocator@D@2@@std@@QEAA@QEBD@Z@4HA DD 031001H
	DD	0700c4210H
	DD	0500bH
xdata	ENDS
;	COMDAT xdata
xdata	SEGMENT
$ip2state$??0?$basic_string@DU?$char_traits@D@std@@V?$allocator@D@2@@std@@QEAA@QEBD@Z DB 0aH
	DB	00H
	DB	00H
	DB	0c6H
	DB	02H
	DB	'p'
	DB	04H
	DB	'R'
	DB	02H
	DB	014H
	DB	00H
xdata	ENDS
;	COMDAT xdata
xdata	SEGMENT
$stateUnwindMap$??0?$basic_string@DU?$char_traits@D@std@@V?$allocator@D@2@@std@@QEAA@QEBD@Z DB 04H
	DB	0eH
	DD	imagerel ?dtor$0@?0???0?$basic_string@DU?$char_traits@D@std@@V?$allocator@D@2@@std@@QEAA@QEBD@Z@4HA
	DB	02eH
	DD	imagerel ?dtor$1@?0???0?$basic_string@DU?$char_traits@D@std@@V?$allocator@D@2@@std@@QEAA@QEBD@Z@4HA
xdata	ENDS
;	COMDAT xdata
xdata	SEGMENT
$cppxdata$??0?$basic_string@DU?$char_traits@D@std@@V?$allocator@D@2@@std@@QEAA@QEBD@Z DB 028H
	DD	imagerel $stateUnwindMap$??0?$basic_string@DU?$char_traits@D@std@@V?$allocator@D@2@@std@@QEAA@QEBD@Z
	DD	imagerel $ip2state$??0?$basic_string@DU?$char_traits@D@std@@V?$allocator@D@2@@std@@QEAA@QEBD@Z
xdata	ENDS
;	COMDAT xdata
xdata	SEGMENT
$unwind$??0?$basic_string@DU?$char_traits@D@std@@V?$allocator@D@2@@std@@QEAA@QEBD@Z DD 025054019H
	DD	01132318H
	DD	0700c002fH
	DD	0500bH
	DD	imagerel __GSHandlerCheck_EH4
	DD	imagerel $cppxdata$??0?$basic_string@DU?$char_traits@D@std@@V?$allocator@D@2@@std@@QEAA@QEBD@Z
	DD	016aH
xdata	ENDS
;	COMDAT CONST
CONST	SEGMENT
??0?$basic_string@DU?$char_traits@D@std@@V?$allocator@D@2@@std@@QEAA@QEBD@Z$rtcName$0 DB 024H ; std::basic_string<char,std::char_traits<char>,std::allocator<char> >::basic_string<char,std::char_traits<char>,std::allocator<char> >
	DB	053H
	DB	038H
	DB	00H
??0?$basic_string@DU?$char_traits@D@std@@V?$allocator@D@2@@std@@QEAA@QEBD@Z$rtcName$1 DB 05fH ; std::basic_string<char,std::char_traits<char>,std::allocator<char> >::basic_string<char,std::char_traits<char>,std::allocator<char> >
	DB	050H
	DB	072H
	DB	06fH
	DB	078H
	DB	079H
	DB	00H
	ORG $+5
??0?$basic_string@DU?$char_traits@D@std@@V?$allocator@D@2@@std@@QEAA@QEBD@Z$rtcVarDesc DD 068H ; std::basic_string<char,std::char_traits<char>,std::allocator<char> >::basic_string<char,std::char_traits<char>,std::allocator<char> >
	DD	010H
	DQ	FLAT:??0?$basic_string@DU?$char_traits@D@std@@V?$allocator@D@2@@std@@QEAA@QEBD@Z$rtcName$1
	DD	044H
	DD	01H
	DQ	FLAT:??0?$basic_string@DU?$char_traits@D@std@@V?$allocator@D@2@@std@@QEAA@QEBD@Z$rtcName$0
	ORG $+96
??0?$basic_string@DU?$char_traits@D@std@@V?$allocator@D@2@@std@@QEAA@QEBD@Z$rtcFrameData DD 02H ; std::basic_string<char,std::char_traits<char>,std::allocator<char> >::basic_string<char,std::char_traits<char>,std::allocator<char> >
	DD	00H
	DQ	FLAT:??0?$basic_string@DU?$char_traits@D@std@@V?$allocator@D@2@@std@@QEAA@QEBD@Z$rtcVarDesc
CONST	ENDS
;	COMDAT xdata
xdata	SEGMENT
$unwind$??1?$_String_val@U?$_Simple_types@D@std@@@std@@QEAA@XZ DD 025052a01H
	DD	010e2313H
	DD	07007001dH
	DD	05006H
xdata	ENDS
;	COMDAT xdata
xdata	SEGMENT
$ip2state$??1_Bxty@?$_String_val@U?$_Simple_types@D@std@@@std@@QEAA@XZ DB 02H
	DB	00H
	DB	00H
xdata	ENDS
;	COMDAT xdata
xdata	SEGMENT
$cppxdata$??1_Bxty@?$_String_val@U?$_Simple_types@D@std@@@std@@QEAA@XZ DB 060H
	DD	imagerel $ip2state$??1_Bxty@?$_String_val@U?$_Simple_types@D@std@@@std@@QEAA@XZ
xdata	ENDS
;	COMDAT xdata
xdata	SEGMENT
$unwind$??1_Bxty@?$_String_val@U?$_Simple_types@D@std@@@std@@QEAA@XZ DD 025052a19H
	DD	010e2313H
	DD	07007001dH
	DD	05006H
	DD	imagerel __CxxFrameHandler4
	DD	imagerel $cppxdata$??1_Bxty@?$_String_val@U?$_Simple_types@D@std@@@std@@QEAA@XZ
xdata	ENDS
;	COMDAT xdata
xdata	SEGMENT
$unwind$??0_Bxty@?$_String_val@U?$_Simple_types@D@std@@@std@@QEAA@XZ DD 025052a01H
	DD	010e2313H
	DD	07007001dH
	DD	05006H
xdata	ENDS
;	COMDAT xdata
xdata	SEGMENT
$ip2state$?_Large_string_engaged@?$_String_val@U?$_Simple_types@D@std@@@std@@QEBA_NXZ DB 02H
	DB	00H
	DB	00H
xdata	ENDS
;	COMDAT xdata
xdata	SEGMENT
$cppxdata$?_Large_string_engaged@?$_String_val@U?$_Simple_types@D@std@@@std@@QEBA_NXZ DB 060H
	DD	imagerel $ip2state$?_Large_string_engaged@?$_String_val@U?$_Simple_types@D@std@@@std@@QEBA_NXZ
xdata	ENDS
;	COMDAT xdata
xdata	SEGMENT
$unwind$?_Large_string_engaged@?$_String_val@U?$_Simple_types@D@std@@@std@@QEBA_NXZ DD 025052a19H
	DD	010e2313H
	DD	07007001fH
	DD	05006H
	DD	imagerel __CxxFrameHandler4
	DD	imagerel $cppxdata$?_Large_string_engaged@?$_String_val@U?$_Simple_types@D@std@@@std@@QEBA_NXZ
xdata	ENDS
;	COMDAT xdata
xdata	SEGMENT
$ip2state$?_Myptr@?$_String_val@U?$_Simple_types@D@std@@@std@@QEAAPEADXZ DB 02H
	DB	00H
	DB	00H
xdata	ENDS
;	COMDAT xdata
xdata	SEGMENT
$cppxdata$?_Myptr@?$_String_val@U?$_Simple_types@D@std@@@std@@QEAAPEADXZ DB 060H
	DD	imagerel $ip2state$?_Myptr@?$_String_val@U?$_Simple_types@D@std@@@std@@QEAAPEADXZ
xdata	ENDS
;	COMDAT xdata
xdata	SEGMENT
$unwind$?_Myptr@?$_String_val@U?$_Simple_types@D@std@@@std@@QEAAPEADXZ DD 025052a19H
	DD	010e2313H
	DD	070070021H
	DD	05006H
	DD	imagerel __CxxFrameHandler4
	DD	imagerel $cppxdata$?_Myptr@?$_String_val@U?$_Simple_types@D@std@@@std@@QEAAPEADXZ
xdata	ENDS
;	COMDAT xdata
xdata	SEGMENT
$unwind$??0?$_String_val@U?$_Simple_types@D@std@@@std@@QEAA@XZ DD 025052a01H
	DD	010e2313H
	DD	07007001dH
	DD	05006H
xdata	ENDS
;	COMDAT xdata
xdata	SEGMENT
$ip2state$?max_size@?$_Default_allocator_traits@V?$allocator@D@std@@@std@@SA_KAEBV?$allocator@D@2@@Z DB 02H
	DB	00H
	DB	00H
xdata	ENDS
;	COMDAT xdata
xdata	SEGMENT
$cppxdata$?max_size@?$_Default_allocator_traits@V?$allocator@D@std@@@std@@SA_KAEBV?$allocator@D@2@@Z DB 060H
	DD	imagerel $ip2state$?max_size@?$_Default_allocator_traits@V?$allocator@D@std@@@std@@SA_KAEBV?$allocator@D@2@@Z
xdata	ENDS
;	COMDAT xdata
xdata	SEGMENT
$unwind$?max_size@?$_Default_allocator_traits@V?$allocator@D@std@@@std@@SA_KAEBV?$allocator@D@2@@Z DD 025052a19H
	DD	010e2313H
	DD	07007001dH
	DD	05006H
	DD	imagerel __CxxFrameHandler4
	DD	imagerel $cppxdata$?max_size@?$_Default_allocator_traits@V?$allocator@D@std@@@std@@SA_KAEBV?$allocator@D@2@@Z
xdata	ENDS
;	COMDAT xdata
xdata	SEGMENT
$unwind$?allocate@?$allocator@D@std@@QEAAPEAD_K@Z DD 025052f01H
	DD	01132318H
	DD	0700c001dH
	DD	0500bH
xdata	ENDS
;	COMDAT xdata
xdata	SEGMENT
$unwind$?deallocate@?$allocator@D@std@@QEAAXQEAD_K@Z DD 025053401H
	DD	0118231dH
	DD	07011001dH
	DD	05010H
xdata	ENDS
;	COMDAT xdata
xdata	SEGMENT
$ip2state$??0?$allocator@D@std@@QEAA@XZ DB 02H
	DB	00H
	DB	00H
xdata	ENDS
;	COMDAT xdata
xdata	SEGMENT
$cppxdata$??0?$allocator@D@std@@QEAA@XZ DB 060H
	DD	imagerel $ip2state$??0?$allocator@D@std@@QEAA@XZ
xdata	ENDS
;	COMDAT xdata
xdata	SEGMENT
$unwind$??0?$allocator@D@std@@QEAA@XZ DD 025052a19H
	DD	010e2313H
	DD	07007001dH
	DD	05006H
	DD	imagerel __CxxFrameHandler4
	DD	imagerel $cppxdata$??0?$allocator@D@std@@QEAA@XZ
xdata	ENDS
;	COMDAT xdata
xdata	SEGMENT
$unwind$?_Xlen_string@std@@YAXXZ DD 025051e01H
	DD	010a230fH
	DD	07003001dH
	DD	05002H
xdata	ENDS
;	COMDAT xdata
xdata	SEGMENT
$ip2state$?eof@?$_Narrow_char_traits@DH@std@@SAHXZ DB 02H
	DB	00H
	DB	00H
xdata	ENDS
;	COMDAT xdata
xdata	SEGMENT
$cppxdata$?eof@?$_Narrow_char_traits@DH@std@@SAHXZ DB 060H
	DD	imagerel $ip2state$?eof@?$_Narrow_char_traits@DH@std@@SAHXZ
xdata	ENDS
;	COMDAT xdata
xdata	SEGMENT
$unwind$?eof@?$_Narrow_char_traits@DH@std@@SAHXZ DD 025051e19H
	DD	010a230fH
	DD	07003001dH
	DD	05002H
	DD	imagerel __CxxFrameHandler4
	DD	imagerel $cppxdata$?eof@?$_Narrow_char_traits@DH@std@@SAHXZ
xdata	ENDS
;	COMDAT xdata
xdata	SEGMENT
$ip2state$?eq_int_type@?$_Narrow_char_traits@DH@std@@SA_NAEBH0@Z DB 02H
	DB	00H
	DB	00H
xdata	ENDS
;	COMDAT xdata
xdata	SEGMENT
$cppxdata$?eq_int_type@?$_Narrow_char_traits@DH@std@@SA_NAEBH0@Z DB 060H
	DD	imagerel $ip2state$?eq_int_type@?$_Narrow_char_traits@DH@std@@SA_NAEBH0@Z
xdata	ENDS
;	COMDAT xdata
xdata	SEGMENT
$unwind$?eq_int_type@?$_Narrow_char_traits@DH@std@@SA_NAEBH0@Z DD 025052f19H
	DD	01132318H
	DD	0700c001fH
	DD	0500bH
	DD	imagerel __CxxFrameHandler4
	DD	imagerel $cppxdata$?eq_int_type@?$_Narrow_char_traits@DH@std@@SA_NAEBH0@Z
xdata	ENDS
;	COMDAT xdata
xdata	SEGMENT
$ip2state$?assign@?$_Narrow_char_traits@DH@std@@SAXAEADAEBD@Z DB 02H
	DB	00H
	DB	00H
xdata	ENDS
;	COMDAT xdata
xdata	SEGMENT
$cppxdata$?assign@?$_Narrow_char_traits@DH@std@@SAXAEADAEBD@Z DB 060H
	DD	imagerel $ip2state$?assign@?$_Narrow_char_traits@DH@std@@SAXAEADAEBD@Z
xdata	ENDS
;	COMDAT xdata
xdata	SEGMENT
$unwind$?assign@?$_Narrow_char_traits@DH@std@@SAXAEADAEBD@Z DD 025052f19H
	DD	01132318H
	DD	0700c001dH
	DD	0500bH
	DD	imagerel __CxxFrameHandler4
	DD	imagerel $cppxdata$?assign@?$_Narrow_char_traits@DH@std@@SAXAEADAEBD@Z
xdata	ENDS
;	COMDAT xdata
xdata	SEGMENT
$ip2state$?move@?$_Narrow_char_traits@DH@std@@SAPEADQEADQEBD_K@Z DB 02H
	DB	00H
	DB	00H
xdata	ENDS
;	COMDAT xdata
xdata	SEGMENT
$cppxdata$?move@?$_Narrow_char_traits@DH@std@@SAPEADQEADQEBD_K@Z DB 060H
	DD	imagerel $ip2state$?move@?$_Narrow_char_traits@DH@std@@SAPEADQEADQEBD_K@Z
xdata	ENDS
;	COMDAT xdata
xdata	SEGMENT
$unwind$?move@?$_Narrow_char_traits@DH@std@@SAPEADQEADQEBD_K@Z DD 025053419H
	DD	0118231dH
	DD	07011001dH
	DD	05010H
	DD	imagerel __CxxFrameHandler4
	DD	imagerel $cppxdata$?move@?$_Narrow_char_traits@DH@std@@SAPEADQEADQEBD_K@Z
xdata	ENDS
;	COMDAT xdata
xdata	SEGMENT
$ip2state$?copy@?$_Narrow_char_traits@DH@std@@SAPEADQEADQEBD_K@Z DB 02H
	DB	00H
	DB	00H
xdata	ENDS
;	COMDAT xdata
xdata	SEGMENT
$cppxdata$?copy@?$_Narrow_char_traits@DH@std@@SAPEADQEADQEBD_K@Z DB 060H
	DD	imagerel $ip2state$?copy@?$_Narrow_char_traits@DH@std@@SAPEADQEADQEBD_K@Z
xdata	ENDS
;	COMDAT xdata
xdata	SEGMENT
$unwind$?copy@?$_Narrow_char_traits@DH@std@@SAPEADQEADQEBD_K@Z DD 025053419H
	DD	0118231dH
	DD	07011001dH
	DD	05010H
	DD	imagerel __CxxFrameHandler4
	DD	imagerel $cppxdata$?copy@?$_Narrow_char_traits@DH@std@@SAPEADQEADQEBD_K@Z
xdata	ENDS
;	COMDAT xdata
xdata	SEGMENT
$ip2state$?length@?$_Narrow_char_traits@DH@std@@SA_KQEBD@Z DB 02H
	DB	00H
	DB	00H
xdata	ENDS
;	COMDAT xdata
xdata	SEGMENT
$cppxdata$?length@?$_Narrow_char_traits@DH@std@@SA_KQEBD@Z DB 060H
	DD	imagerel $ip2state$?length@?$_Narrow_char_traits@DH@std@@SA_KQEBD@Z
xdata	ENDS
;	COMDAT xdata
xdata	SEGMENT
$unwind$?length@?$_Narrow_char_traits@DH@std@@SA_KQEBD@Z DD 025052a19H
	DD	010e2313H
	DD	07007001dH
	DD	05006H
	DD	imagerel __CxxFrameHandler4
	DD	imagerel $cppxdata$?length@?$_Narrow_char_traits@DH@std@@SA_KQEBD@Z
xdata	ENDS
;	COMDAT xdata
xdata	SEGMENT
$ip2state$??$_Construct_in_place@U_Container_proxy@std@@PEAU_Container_base12@2@@std@@YAXAEAU_Container_proxy@0@$$QEAPEAU_Container_base12@0@@Z DB 02H
	DB	00H
	DB	00H
xdata	ENDS
;	COMDAT xdata
xdata	SEGMENT
$cppxdata$??$_Construct_in_place@U_Container_proxy@std@@PEAU_Container_base12@2@@std@@YAXAEAU_Container_proxy@0@$$QEAPEAU_Container_base12@0@@Z DB 060H
	DD	imagerel $ip2state$??$_Construct_in_place@U_Container_proxy@std@@PEAU_Container_base12@2@@std@@YAXAEAU_Container_proxy@0@$$QEAPEAU_Container_base12@0@@Z
xdata	ENDS
;	COMDAT xdata
xdata	SEGMENT
$unwind$??$_Construct_in_place@U_Container_proxy@std@@PEAU_Container_base12@2@@std@@YAXAEAU_Container_proxy@0@$$QEAPEAU_Container_base12@0@@Z DD 025052f19H
	DD	01132318H
	DD	0700c0021H
	DD	0500bH
	DD	imagerel __CxxFrameHandler4
	DD	imagerel $cppxdata$??$_Construct_in_place@U_Container_proxy@std@@PEAU_Container_base12@2@@std@@YAXAEAU_Container_proxy@0@$$QEAPEAU_Container_base12@0@@Z
xdata	ENDS
;	COMDAT xdata
xdata	SEGMENT
$ip2state$??$addressof@U_Container_base12@std@@@std@@YAPEAU_Container_base12@0@AEAU10@@Z DB 02H
	DB	00H
	DB	00H
xdata	ENDS
;	COMDAT xdata
xdata	SEGMENT
$cppxdata$??$addressof@U_Container_base12@std@@@std@@YAPEAU_Container_base12@0@AEAU10@@Z DB 060H
	DD	imagerel $ip2state$??$addressof@U_Container_base12@std@@@std@@YAPEAU_Container_base12@0@AEAU10@@Z
xdata	ENDS
;	COMDAT xdata
xdata	SEGMENT
$unwind$??$addressof@U_Container_base12@std@@@std@@YAPEAU_Container_base12@0@AEAU10@@Z DD 025052a19H
	DD	010e2313H
	DD	07007001dH
	DD	05006H
	DD	imagerel __CxxFrameHandler4
	DD	imagerel $cppxdata$??$addressof@U_Container_base12@std@@@std@@YAPEAU_Container_base12@0@AEAU10@@Z
xdata	ENDS
;	COMDAT xdata
xdata	SEGMENT
$ip2state$?_Release@_Basic_container_proxy_ptr12@std@@QEAAXXZ DB 02H
	DB	00H
	DB	00H
xdata	ENDS
;	COMDAT xdata
xdata	SEGMENT
$cppxdata$?_Release@_Basic_container_proxy_ptr12@std@@QEAAXXZ DB 060H
	DD	imagerel $ip2state$?_Release@_Basic_container_proxy_ptr12@std@@QEAAXXZ
xdata	ENDS
;	COMDAT xdata
xdata	SEGMENT
$unwind$?_Release@_Basic_container_proxy_ptr12@std@@QEAAXXZ DD 025052a19H
	DD	010e2313H
	DD	07007001dH
	DD	05006H
	DD	imagerel __CxxFrameHandler4
	DD	imagerel $cppxdata$?_Release@_Basic_container_proxy_ptr12@std@@QEAAXXZ
xdata	ENDS
;	COMDAT xdata
xdata	SEGMENT
$ip2state$?_Orphan_all@_Container_base12@std@@QEAAXXZ DB 02H
	DB	00H
	DB	00H
xdata	ENDS
;	COMDAT xdata
xdata	SEGMENT
$cppxdata$?_Orphan_all@_Container_base12@std@@QEAAXXZ DB 060H
	DD	imagerel $ip2state$?_Orphan_all@_Container_base12@std@@QEAAXXZ
xdata	ENDS
;	COMDAT xdata
xdata	SEGMENT
$unwind$?_Orphan_all@_Container_base12@std@@QEAAXXZ DD 025053b19H
	DD	010e2313H
	DD	070070025H
	DD	05006H
	DD	imagerel __GSHandlerCheck_EH4
	DD	imagerel $cppxdata$?_Orphan_all@_Container_base12@std@@QEAAXXZ
	DD	011bH
xdata	ENDS
;	COMDAT CONST
CONST	SEGMENT
?_Orphan_all@_Container_base12@std@@QEAAXXZ$rtcName$0 DB 05fH ; std::_Container_base12::_Orphan_all
	DB	04cH
	DB	06fH
	DB	063H
	DB	06bH
	DB	00H
	ORG $+10
?_Orphan_all@_Container_base12@std@@QEAAXXZ$rtcVarDesc DD 024H ; std::_Container_base12::_Orphan_all
	DD	04H
	DQ	FLAT:?_Orphan_all@_Container_base12@std@@QEAAXXZ$rtcName$0
	ORG $+48
?_Orphan_all@_Container_base12@std@@QEAAXXZ$rtcFrameData DD 01H ; std::_Container_base12::_Orphan_all
	DD	00H
	DQ	FLAT:?_Orphan_all@_Container_base12@std@@QEAAXXZ$rtcVarDesc
CONST	ENDS
;	COMDAT xdata
xdata	SEGMENT
$ip2state$??0_Container_base12@std@@QEAA@XZ DB 02H
	DB	00H
	DB	00H
xdata	ENDS
;	COMDAT xdata
xdata	SEGMENT
$cppxdata$??0_Container_base12@std@@QEAA@XZ DB 060H
	DD	imagerel $ip2state$??0_Container_base12@std@@QEAA@XZ
xdata	ENDS
;	COMDAT xdata
xdata	SEGMENT
$unwind$??0_Container_base12@std@@QEAA@XZ DD 025052a19H
	DD	010e2313H
	DD	07007001dH
	DD	05006H
	DD	imagerel __CxxFrameHandler4
	DD	imagerel $cppxdata$??0_Container_base12@std@@QEAA@XZ
xdata	ENDS
;	COMDAT xdata
xdata	SEGMENT
$ip2state$??0_Container_proxy@std@@QEAA@PEAU_Container_base12@1@@Z DB 02H
	DB	00H
	DB	00H
xdata	ENDS
;	COMDAT xdata
xdata	SEGMENT
$cppxdata$??0_Container_proxy@std@@QEAA@PEAU_Container_base12@1@@Z DB 060H
	DD	imagerel $ip2state$??0_Container_proxy@std@@QEAA@PEAU_Container_base12@1@@Z
xdata	ENDS
;	COMDAT xdata
xdata	SEGMENT
$unwind$??0_Container_proxy@std@@QEAA@PEAU_Container_base12@1@@Z DD 025052f19H
	DD	01132318H
	DD	0700c001dH
	DD	0500bH
	DD	imagerel __CxxFrameHandler4
	DD	imagerel $cppxdata$??0_Container_proxy@std@@QEAA@PEAU_Container_base12@1@@Z
xdata	ENDS
;	COMDAT xdata
xdata	SEGMENT
$ip2state$??$_Convert_size@_K@std@@YA_K_K@Z DB 02H
	DB	00H
	DB	00H
xdata	ENDS
;	COMDAT xdata
xdata	SEGMENT
$cppxdata$??$_Convert_size@_K@std@@YA_K_K@Z DB 060H
	DD	imagerel $ip2state$??$_Convert_size@_K@std@@YA_K_K@Z
xdata	ENDS
;	COMDAT xdata
xdata	SEGMENT
$unwind$??$_Convert_size@_K@std@@YA_K_K@Z DD 025052a19H
	DD	010e2313H
	DD	07007001dH
	DD	05006H
	DD	imagerel __CxxFrameHandler4
	DD	imagerel $cppxdata$??$_Convert_size@_K@std@@YA_K_K@Z
xdata	ENDS
;	COMDAT xdata
xdata	SEGMENT
$unwind$?_Adjust_manually_vector_aligned@std@@YAXAEAPEAXAEA_K@Z DD 035052f01H
	DD	01133318H
	DD	0700c002fH
	DD	0500bH
xdata	ENDS
;	COMDAT xdata
xdata	SEGMENT
$unwind$?_Allocate@_Default_allocate_traits@std@@SAPEAX_K@Z DD 025052a01H
	DD	010e2313H
	DD	07007001dH
	DD	05006H
xdata	ENDS
;	COMDAT xdata
xdata	SEGMENT
$ip2state$?max@?$numeric_limits@_J@std@@SA_JXZ DB 02H
	DB	00H
	DB	00H
xdata	ENDS
;	COMDAT xdata
xdata	SEGMENT
$cppxdata$?max@?$numeric_limits@_J@std@@SA_JXZ DB 060H
	DD	imagerel $ip2state$?max@?$numeric_limits@_J@std@@SA_JXZ
xdata	ENDS
;	COMDAT xdata
xdata	SEGMENT
$unwind$?max@?$numeric_limits@_J@std@@SA_JXZ DD 025051e19H
	DD	010a230fH
	DD	07003001dH
	DD	05002H
	DD	imagerel __CxxFrameHandler4
	DD	imagerel $cppxdata$?max@?$numeric_limits@_J@std@@SA_JXZ
xdata	ENDS
;	COMDAT xdata
xdata	SEGMENT
$unwind$?_Throw_bad_array_new_length@std@@YAXXZ DD 025051e01H
	DD	010a230fH
	DD	070030023H
	DD	05002H
xdata	ENDS
;	COMDAT xdata
xdata	SEGMENT
$unwind$??_Gbad_array_new_length@std@@UEAAPEAXI@Z DD 025052e01H
	DD	01122317H
	DD	0700b001dH
	DD	0500aH
xdata	ENDS
;	COMDAT xdata
xdata	SEGMENT
$unwind$??0bad_array_new_length@std@@QEAA@AEBV01@@Z DD 025052f01H
	DD	01132318H
	DD	0700c001dH
	DD	0500bH
xdata	ENDS
;	COMDAT xdata
xdata	SEGMENT
$unwind$??1bad_array_new_length@std@@UEAA@XZ DD 025052a01H
	DD	010e2313H
	DD	07007001dH
	DD	05006H
xdata	ENDS
;	COMDAT xdata
xdata	SEGMENT
$ip2state$??0bad_array_new_length@std@@QEAA@XZ DB 02H
	DB	00H
	DB	00H
xdata	ENDS
;	COMDAT xdata
xdata	SEGMENT
$cppxdata$??0bad_array_new_length@std@@QEAA@XZ DB 060H
	DD	imagerel $ip2state$??0bad_array_new_length@std@@QEAA@XZ
xdata	ENDS
;	COMDAT xdata
xdata	SEGMENT
$unwind$??0bad_array_new_length@std@@QEAA@XZ DD 025052a19H
	DD	010e2313H
	DD	07007001dH
	DD	05006H
	DD	imagerel __CxxFrameHandler4
	DD	imagerel $cppxdata$??0bad_array_new_length@std@@QEAA@XZ
xdata	ENDS
;	COMDAT xdata
xdata	SEGMENT
$unwind$??_Gbad_alloc@std@@UEAAPEAXI@Z DD 025052e01H
	DD	01122317H
	DD	0700b001dH
	DD	0500aH
xdata	ENDS
;	COMDAT xdata
xdata	SEGMENT
$unwind$??0bad_alloc@std@@QEAA@AEBV01@@Z DD 025052f01H
	DD	01132318H
	DD	0700c001dH
	DD	0500bH
xdata	ENDS
;	COMDAT xdata
xdata	SEGMENT
$unwind$??1bad_alloc@std@@UEAA@XZ DD 025052a01H
	DD	010e2313H
	DD	07007001dH
	DD	05006H
xdata	ENDS
;	COMDAT xdata
xdata	SEGMENT
$ip2state$??0bad_alloc@std@@AEAA@QEBD@Z DB 02H
	DB	00H
	DB	00H
xdata	ENDS
;	COMDAT xdata
xdata	SEGMENT
$cppxdata$??0bad_alloc@std@@AEAA@QEBD@Z DB 060H
	DD	imagerel $ip2state$??0bad_alloc@std@@AEAA@QEBD@Z
xdata	ENDS
;	COMDAT xdata
xdata	SEGMENT
$unwind$??0bad_alloc@std@@AEAA@QEBD@Z DD 025052f19H
	DD	01132318H
	DD	0700c001dH
	DD	0500bH
	DD	imagerel __CxxFrameHandler4
	DD	imagerel $cppxdata$??0bad_alloc@std@@AEAA@QEBD@Z
xdata	ENDS
;	COMDAT xdata
xdata	SEGMENT
$unwind$??_Gexception@std@@UEAAPEAXI@Z DD 025052e01H
	DD	01122317H
	DD	0700b001dH
	DD	0500aH
xdata	ENDS
;	COMDAT xdata
xdata	SEGMENT
$unwind$?what@exception@std@@UEBAPEBDXZ DD 025052a01H
	DD	010e2313H
	DD	07007001fH
	DD	05006H
xdata	ENDS
;	COMDAT xdata
xdata	SEGMENT
$ip2state$??1exception@std@@UEAA@XZ DB 02H
	DB	00H
	DB	00H
xdata	ENDS
;	COMDAT xdata
xdata	SEGMENT
$cppxdata$??1exception@std@@UEAA@XZ DB 060H
	DD	imagerel $ip2state$??1exception@std@@UEAA@XZ
xdata	ENDS
;	COMDAT xdata
xdata	SEGMENT
$unwind$??1exception@std@@UEAA@XZ DD 025052a19H
	DD	010e2313H
	DD	07007001dH
	DD	05006H
	DD	imagerel __CxxFrameHandler4
	DD	imagerel $cppxdata$??1exception@std@@UEAA@XZ
xdata	ENDS
;	COMDAT xdata
xdata	SEGMENT
$ip2state$??0exception@std@@QEAA@AEBV01@@Z DB 02H
	DB	00H
	DB	00H
xdata	ENDS
;	COMDAT xdata
xdata	SEGMENT
$cppxdata$??0exception@std@@QEAA@AEBV01@@Z DB 060H
	DD	imagerel $ip2state$??0exception@std@@QEAA@AEBV01@@Z
xdata	ENDS
;	COMDAT xdata
xdata	SEGMENT
$unwind$??0exception@std@@QEAA@AEBV01@@Z DD 025052f19H
	DD	01132318H
	DD	0700c001dH
	DD	0500bH
	DD	imagerel __CxxFrameHandler4
	DD	imagerel $cppxdata$??0exception@std@@QEAA@AEBV01@@Z
xdata	ENDS
;	COMDAT xdata
xdata	SEGMENT
$ip2state$??0exception@std@@QEAA@QEBDH@Z DB 02H
	DB	00H
	DB	00H
xdata	ENDS
;	COMDAT xdata
xdata	SEGMENT
$cppxdata$??0exception@std@@QEAA@QEBDH@Z DB 060H
	DD	imagerel $ip2state$??0exception@std@@QEAA@QEBDH@Z
xdata	ENDS
;	COMDAT xdata
xdata	SEGMENT
$unwind$??0exception@std@@QEAA@QEBDH@Z DD 025053419H
	DD	0118231dH
	DD	07011001dH
	DD	05010H
	DD	imagerel __CxxFrameHandler4
	DD	imagerel $cppxdata$??0exception@std@@QEAA@QEBDH@Z
xdata	ENDS
;	COMDAT xdata
xdata	SEGMENT
$ip2state$??2@YAPEAX_KPEAX@Z DB 02H
	DB	00H
	DB	00H
xdata	ENDS
;	COMDAT xdata
xdata	SEGMENT
$cppxdata$??2@YAPEAX_KPEAX@Z DB 060H
	DD	imagerel $ip2state$??2@YAPEAX_KPEAX@Z
xdata	ENDS
;	COMDAT xdata
xdata	SEGMENT
$unwind$??2@YAPEAX_KPEAX@Z DD 025052f19H
	DD	01132318H
	DD	0700c001dH
	DD	0500bH
	DD	imagerel __CxxFrameHandler4
	DD	imagerel $cppxdata$??2@YAPEAX_KPEAX@Z
xdata	ENDS
;	COMDAT xdata
xdata	SEGMENT
$unwind$?__empty_global_delete@@YAXPEAX_K@Z DD 025052f01H
	DD	01132318H
	DD	0700c001dH
	DD	0500bH
xdata	ENDS
;	COMDAT xdata
xdata	SEGMENT
$unwind$?__empty_global_delete@@YAXPEAX@Z DD 025052a01H
	DD	010e2313H
	DD	07007001dH
	DD	05006H
xdata	ENDS
; Function compile flags: /Odt
;	COMDAT __JustMyCode_Default
_TEXT	SEGMENT
__JustMyCode_Default PROC				; COMDAT
  00000	c2 00 00	 ret	 0
__JustMyCode_Default ENDP
_TEXT	ENDS
; Function compile flags: /Odtp /RTCsu /ZI
; File C:\Program Files (x86)\Microsoft Visual Studio\2019\Community\VC\Tools\MSVC\14.27.29110\include\xmemory
;	COMDAT ?deallocate@?$_Default_allocator_traits@V?$allocator@U_Container_proxy@std@@@std@@@std@@SAXAEAV?$allocator@U_Container_proxy@std@@@2@QEAU_Container_proxy@2@_K@Z
_TEXT	SEGMENT
__formal$ = 224
_Ptr$ = 232
_Count$ = 240
?deallocate@?$_Default_allocator_traits@V?$allocator@U_Container_proxy@std@@@std@@@std@@SAXAEAV?$allocator@U_Container_proxy@std@@@2@QEAU_Container_proxy@2@_K@Z PROC ; std::_Default_allocator_traits<std::allocator<std::_Container_proxy> >::deallocate, COMDAT

; 687  :     static void deallocate(_Alloc&, const pointer _Ptr, const size_type _Count) {

$LN3:
  00000	4c 89 44 24 18	 mov	 QWORD PTR [rsp+24], r8
  00005	48 89 54 24 10	 mov	 QWORD PTR [rsp+16], rdx
  0000a	48 89 4c 24 08	 mov	 QWORD PTR [rsp+8], rcx
  0000f	55		 push	 rbp
  00010	57		 push	 rdi
  00011	48 81 ec e8 00
	00 00		 sub	 rsp, 232		; 000000e8H
  00018	48 8d 6c 24 20	 lea	 rbp, QWORD PTR [rsp+32]
  0001d	48 8b fc	 mov	 rdi, rsp
  00020	b9 3a 00 00 00	 mov	 ecx, 58			; 0000003aH
  00025	b8 cc cc cc cc	 mov	 eax, -858993460		; ccccccccH
  0002a	f3 ab		 rep stosd
  0002c	48 8b 8c 24 08
	01 00 00	 mov	 rcx, QWORD PTR [rsp+264]
  00034	48 8d 0d 00 00
	00 00		 lea	 rcx, OFFSET FLAT:__A58979FC_xmemory
  0003b	e8 00 00 00 00	 call	 __CheckForDebuggerJustMyCode

; 688  :         // no overflow check on the following multiply; we assume _Allocate did that check
; 689  :         _Deallocate<_New_alignof<value_type>>(_Ptr, sizeof(value_type) * _Count);

  00040	48 6b 85 f0 00
	00 00 10	 imul	 rax, QWORD PTR _Count$[rbp], 16
  00048	48 8b d0	 mov	 rdx, rax
  0004b	48 8b 8d e8 00
	00 00		 mov	 rcx, QWORD PTR _Ptr$[rbp]
  00052	e8 00 00 00 00	 call	 ??$_Deallocate@$0BA@$0A@@std@@YAXPEAX_K@Z ; std::_Deallocate<16,0>

; 690  :     }

  00057	48 8d a5 c8 00
	00 00		 lea	 rsp, QWORD PTR [rbp+200]
  0005e	5f		 pop	 rdi
  0005f	5d		 pop	 rbp
  00060	c3		 ret	 0
?deallocate@?$_Default_allocator_traits@V?$allocator@U_Container_proxy@std@@@std@@@std@@SAXAEAV?$allocator@U_Container_proxy@std@@@2@QEAU_Container_proxy@2@_K@Z ENDP ; std::_Default_allocator_traits<std::allocator<std::_Container_proxy> >::deallocate
_TEXT	ENDS
; Function compile flags: /Odtp /RTCsu /ZI
; File C:\Program Files (x86)\Microsoft Visual Studio\2019\Community\VC\Tools\MSVC\14.27.29110\include\xmemory
;	COMDAT ??$_Allocate_manually_vector_aligned@U_Default_allocate_traits@std@@@std@@YAPEAX_K@Z
_TEXT	SEGMENT
_Block_size$ = 8
_Ptr_container$ = 40
_Ptr$ = 72
_Bytes$ = 320
??$_Allocate_manually_vector_aligned@U_Default_allocate_traits@std@@@std@@YAPEAX_K@Z PROC ; std::_Allocate_manually_vector_aligned<std::_Default_allocate_traits>, COMDAT

; 113  : __declspec(allocator) void* _Allocate_manually_vector_aligned(const size_t _Bytes) {

$LN13:
  00000	48 89 4c 24 08	 mov	 QWORD PTR [rsp+8], rcx
  00005	55		 push	 rbp
  00006	57		 push	 rdi
  00007	48 81 ec 58 01
	00 00		 sub	 rsp, 344		; 00000158H
  0000e	48 8d 6c 24 30	 lea	 rbp, QWORD PTR [rsp+48]
  00013	48 8b fc	 mov	 rdi, rsp
  00016	b9 56 00 00 00	 mov	 ecx, 86			; 00000056H
  0001b	b8 cc cc cc cc	 mov	 eax, -858993460		; ccccccccH
  00020	f3 ab		 rep stosd
  00022	48 8b 8c 24 78
	01 00 00	 mov	 rcx, QWORD PTR [rsp+376]
  0002a	48 8d 0d 00 00
	00 00		 lea	 rcx, OFFSET FLAT:__A58979FC_xmemory
  00031	e8 00 00 00 00	 call	 __CheckForDebuggerJustMyCode

; 114  :     // allocate _Bytes manually aligned to at least _Big_allocation_alignment
; 115  :     const size_t _Block_size = _Non_user_size + _Bytes;

  00036	48 8b 85 40 01
	00 00		 mov	 rax, QWORD PTR _Bytes$[rbp]
  0003d	48 83 c0 2f	 add	 rax, 47			; 0000002fH
  00041	48 89 45 08	 mov	 QWORD PTR _Block_size$[rbp], rax

; 116  :     if (_Block_size <= _Bytes) {

  00045	48 8b 85 40 01
	00 00		 mov	 rax, QWORD PTR _Bytes$[rbp]
  0004c	48 39 45 08	 cmp	 QWORD PTR _Block_size$[rbp], rax
  00050	77 05		 ja	 SHORT $LN8@Allocate_m

; 117  :         _Throw_bad_array_new_length(); // add overflow

  00052	e8 00 00 00 00	 call	 ?_Throw_bad_array_new_length@std@@YAXXZ ; std::_Throw_bad_array_new_length
$LN8@Allocate_m:

; 118  :     }
; 119  : 
; 120  :     const uintptr_t _Ptr_container = reinterpret_cast<uintptr_t>(_Traits::_Allocate(_Block_size));

  00057	48 8b 4d 08	 mov	 rcx, QWORD PTR _Block_size$[rbp]
  0005b	e8 00 00 00 00	 call	 ?_Allocate@_Default_allocate_traits@std@@SAPEAX_K@Z ; std::_Default_allocate_traits::_Allocate
  00060	48 89 45 28	 mov	 QWORD PTR _Ptr_container$[rbp], rax
$LN4@Allocate_m:

; 121  :     _STL_VERIFY(_Ptr_container != 0, "invalid argument"); // validate even in release since we're doing p[-1]

  00064	48 83 7d 28 00	 cmp	 QWORD PTR _Ptr_container$[rbp], 0
  00069	74 02		 je	 SHORT $LN9@Allocate_m
  0006b	eb 6b		 jmp	 SHORT $LN10@Allocate_m
$LN9@Allocate_m:
$LN7@Allocate_m:
  0006d	48 8d 05 00 00
	00 00		 lea	 rax, OFFSET FLAT:??_C@_0BB@FCMFBGOM@invalid?5argument@
  00074	48 89 44 24 28	 mov	 QWORD PTR [rsp+40], rax
  00079	48 8d 05 00 00
	00 00		 lea	 rax, OFFSET FLAT:??_C@_02DKCKIIND@?$CFs@
  00080	48 89 44 24 20	 mov	 QWORD PTR [rsp+32], rax
  00085	45 33 c9	 xor	 r9d, r9d
  00088	41 b8 79 00 00
	00		 mov	 r8d, 121		; 00000079H
  0008e	48 8d 15 00 00
	00 00		 lea	 rdx, OFFSET FLAT:??_C@_0GI@JMEOMKJO@C?3?2Program?5Files?5?$CIx86?$CJ?2Microsof@
  00095	b9 02 00 00 00	 mov	 ecx, 2
  0009a	ff 15 00 00 00
	00		 call	 QWORD PTR __imp__CrtDbgReport
  000a0	83 f8 01	 cmp	 eax, 1
  000a3	75 03		 jne	 SHORT $LN12@Allocate_m
  000a5	cc		 int	 3
  000a6	33 c0		 xor	 eax, eax
$LN12@Allocate_m:
  000a8	48 c7 44 24 20
	00 00 00 00	 mov	 QWORD PTR [rsp+32], 0
  000b1	41 b9 79 00 00
	00		 mov	 r9d, 121		; 00000079H
  000b7	4c 8d 05 00 00
	00 00		 lea	 r8, OFFSET FLAT:??_C@_1NA@FEEOBALC@?$AAC?$AA?3?$AA?2?$AAP?$AAr?$AAo?$AAg?$AAr?$AAa?$AAm?$AA?5?$AAF?$AAi?$AAl?$AAe@
  000be	48 8d 15 00 00
	00 00		 lea	 rdx, OFFSET FLAT:??_C@_1EO@GFNCMDLA@?$AAs?$AAt?$AAd?$AA?3?$AA?3?$AA_?$AAA?$AAl?$AAl?$AAo?$AAc?$AAa?$AAt?$AAe?$AA_@
  000c5	48 8d 0d 00 00
	00 00		 lea	 rcx, OFFSET FLAT:??_C@_1CG@JNLFBNGN@?$AA?$CC?$AAi?$AAn?$AAv?$AAa?$AAl?$AAi?$AAd?$AA?5?$AAa?$AAr?$AAg?$AAu?$AAm?$AAe@
  000cc	ff 15 00 00 00
	00		 call	 QWORD PTR __imp__invalid_parameter
  000d2	33 c0		 xor	 eax, eax
  000d4	85 c0		 test	 eax, eax
  000d6	75 95		 jne	 SHORT $LN7@Allocate_m
$LN10@Allocate_m:
  000d8	33 c0		 xor	 eax, eax
  000da	85 c0		 test	 eax, eax
  000dc	75 86		 jne	 SHORT $LN4@Allocate_m

; 122  :     void* const _Ptr = reinterpret_cast<void*>((_Ptr_container + _Non_user_size) & ~(_Big_allocation_alignment - 1));

  000de	48 8b 45 28	 mov	 rax, QWORD PTR _Ptr_container$[rbp]
  000e2	48 83 c0 2f	 add	 rax, 47			; 0000002fH
  000e6	48 83 e0 e0	 and	 rax, -32		; ffffffffffffffe0H
  000ea	48 89 45 48	 mov	 QWORD PTR _Ptr$[rbp], rax

; 123  :     static_cast<uintptr_t*>(_Ptr)[-1] = _Ptr_container;

  000ee	b8 08 00 00 00	 mov	 eax, 8
  000f3	48 6b c0 ff	 imul	 rax, rax, -1
  000f7	48 8b 4d 48	 mov	 rcx, QWORD PTR _Ptr$[rbp]
  000fb	48 8b 55 28	 mov	 rdx, QWORD PTR _Ptr_container$[rbp]
  000ff	48 89 14 01	 mov	 QWORD PTR [rcx+rax], rdx

; 124  : 
; 125  : #ifdef _DEBUG
; 126  :     static_cast<uintptr_t*>(_Ptr)[-2] = _Big_allocation_sentinel;

  00103	b8 08 00 00 00	 mov	 eax, 8
  00108	48 6b c0 fe	 imul	 rax, rax, -2
  0010c	48 8b 4d 48	 mov	 rcx, QWORD PTR _Ptr$[rbp]
  00110	48 ba fa fa fa
	fa fa fa fa fa	 mov	 rdx, -361700864190383366 ; fafafafafafafafaH
  0011a	48 89 14 01	 mov	 QWORD PTR [rcx+rax], rdx

; 127  : #endif // _DEBUG
; 128  :     return _Ptr;

  0011e	48 8b 45 48	 mov	 rax, QWORD PTR _Ptr$[rbp]
$LN11@Allocate_m:

; 129  : }

  00122	48 8d a5 28 01
	00 00		 lea	 rsp, QWORD PTR [rbp+296]
  00129	5f		 pop	 rdi
  0012a	5d		 pop	 rbp
  0012b	c3		 ret	 0
??$_Allocate_manually_vector_aligned@U_Default_allocate_traits@std@@@std@@YAPEAX_K@Z ENDP ; std::_Allocate_manually_vector_aligned<std::_Default_allocate_traits>
_TEXT	ENDS
; Function compile flags: /Odtp /RTCsu /ZI
; File C:\Program Files (x86)\Microsoft Visual Studio\2019\Community\VC\Tools\MSVC\14.27.29110\include\type_traits
;	COMDAT ??$forward@AEBQEAD@std@@YAAEBQEADAEBQEAD@Z
_TEXT	SEGMENT
_Arg$ = 224
??$forward@AEBQEAD@std@@YAAEBQEADAEBQEAD@Z PROC		; std::forward<char * const &>, COMDAT

; 1454 :     remove_reference_t<_Ty>& _Arg) noexcept { // forward an lvalue as either an lvalue or an rvalue

$LN3:
  00000	48 89 4c 24 08	 mov	 QWORD PTR [rsp+8], rcx
  00005	55		 push	 rbp
  00006	57		 push	 rdi
  00007	48 81 ec e8 00
	00 00		 sub	 rsp, 232		; 000000e8H
  0000e	48 8d 6c 24 20	 lea	 rbp, QWORD PTR [rsp+32]
  00013	48 8b fc	 mov	 rdi, rsp
  00016	b9 3a 00 00 00	 mov	 ecx, 58			; 0000003aH
  0001b	b8 cc cc cc cc	 mov	 eax, -858993460		; ccccccccH
  00020	f3 ab		 rep stosd
  00022	48 8b 8c 24 08
	01 00 00	 mov	 rcx, QWORD PTR [rsp+264]
  0002a	48 8d 0d 00 00
	00 00		 lea	 rcx, OFFSET FLAT:__85A9AA98_type_traits
  00031	e8 00 00 00 00	 call	 __CheckForDebuggerJustMyCode

; 1455 :     return static_cast<_Ty&&>(_Arg);

  00036	48 8b 85 e0 00
	00 00		 mov	 rax, QWORD PTR _Arg$[rbp]

; 1456 : }

  0003d	48 8d a5 c8 00
	00 00		 lea	 rsp, QWORD PTR [rbp+200]
  00044	5f		 pop	 rdi
  00045	5d		 pop	 rbp
  00046	c3		 ret	 0
??$forward@AEBQEAD@std@@YAAEBQEADAEBQEAD@Z ENDP		; std::forward<char * const &>
_TEXT	ENDS
; Function compile flags: /Odtp /RTCsu /ZI
; File C:\Program Files (x86)\Microsoft Visual Studio\2019\Community\VC\Tools\MSVC\14.27.29110\include\xstddef
;	COMDAT ??$addressof@PEAD@std@@YAPEAPEADAEAPEAD@Z
_TEXT	SEGMENT
_Val$ = 224
??$addressof@PEAD@std@@YAPEAPEADAEAPEAD@Z PROC		; std::addressof<char *>, COMDAT

; 274  : _NODISCARD constexpr _Ty* addressof(_Ty& _Val) noexcept {

$LN3:
  00000	48 89 4c 24 08	 mov	 QWORD PTR [rsp+8], rcx
  00005	55		 push	 rbp
  00006	57		 push	 rdi
  00007	48 81 ec e8 00
	00 00		 sub	 rsp, 232		; 000000e8H
  0000e	48 8d 6c 24 20	 lea	 rbp, QWORD PTR [rsp+32]
  00013	48 8b fc	 mov	 rdi, rsp
  00016	b9 3a 00 00 00	 mov	 ecx, 58			; 0000003aH
  0001b	b8 cc cc cc cc	 mov	 eax, -858993460		; ccccccccH
  00020	f3 ab		 rep stosd
  00022	48 8b 8c 24 08
	01 00 00	 mov	 rcx, QWORD PTR [rsp+264]
  0002a	48 8d 0d 00 00
	00 00		 lea	 rcx, OFFSET FLAT:__38038D2D_xstddef
  00031	e8 00 00 00 00	 call	 __CheckForDebuggerJustMyCode

; 275  :     return __builtin_addressof(_Val);

  00036	48 8b 85 e0 00
	00 00		 mov	 rax, QWORD PTR _Val$[rbp]

; 276  : }

  0003d	48 8d a5 c8 00
	00 00		 lea	 rsp, QWORD PTR [rbp+200]
  00044	5f		 pop	 rdi
  00045	5d		 pop	 rbp
  00046	c3		 ret	 0
??$addressof@PEAD@std@@YAPEAPEADAEAPEAD@Z ENDP		; std::addressof<char *>
_TEXT	ENDS
; Function compile flags: /Odtp /RTCsu /ZI
; File C:\Program Files (x86)\Microsoft Visual Studio\2019\Community\VC\Tools\MSVC\14.27.29110\include\xmemory
;	COMDAT ??$_Deallocate_plain@V?$allocator@U_Container_proxy@std@@@std@@@std@@YAXAEAV?$allocator@U_Container_proxy@std@@@0@QEAU_Container_proxy@0@@Z
_TEXT	SEGMENT
_Al$ = 224
_Ptr$ = 232
??$_Deallocate_plain@V?$allocator@U_Container_proxy@std@@@std@@@std@@YAXAEAV?$allocator@U_Container_proxy@std@@@0@QEAU_Container_proxy@0@@Z PROC ; std::_Deallocate_plain<std::allocator<std::_Container_proxy> >, COMDAT

; 998  : void _Deallocate_plain(_Alloc& _Al, typename _Alloc::value_type* const _Ptr) noexcept {

$LN3:
  00000	48 89 54 24 10	 mov	 QWORD PTR [rsp+16], rdx
  00005	48 89 4c 24 08	 mov	 QWORD PTR [rsp+8], rcx
  0000a	55		 push	 rbp
  0000b	57		 push	 rdi
  0000c	48 81 ec e8 00
	00 00		 sub	 rsp, 232		; 000000e8H
  00013	48 8d 6c 24 20	 lea	 rbp, QWORD PTR [rsp+32]
  00018	48 8b fc	 mov	 rdi, rsp
  0001b	b9 3a 00 00 00	 mov	 ecx, 58			; 0000003aH
  00020	b8 cc cc cc cc	 mov	 eax, -858993460		; ccccccccH
  00025	f3 ab		 rep stosd
  00027	48 8b 8c 24 08
	01 00 00	 mov	 rcx, QWORD PTR [rsp+264]
  0002f	48 8d 0d 00 00
	00 00		 lea	 rcx, OFFSET FLAT:__A58979FC_xmemory
  00036	e8 00 00 00 00	 call	 __CheckForDebuggerJustMyCode

; 999  :     // deallocate a plain pointer using an allocator
; 1000 :     using _Alloc_traits = allocator_traits<_Alloc>;
; 1001 :     if constexpr (is_same_v<_Alloc_ptr_t<_Alloc>, typename _Alloc::value_type*>) {
; 1002 :         _Alloc_traits::deallocate(_Al, _Ptr, 1);

  0003b	41 b8 01 00 00
	00		 mov	 r8d, 1
  00041	48 8b 95 e8 00
	00 00		 mov	 rdx, QWORD PTR _Ptr$[rbp]
  00048	48 8b 8d e0 00
	00 00		 mov	 rcx, QWORD PTR _Al$[rbp]
  0004f	e8 00 00 00 00	 call	 ?deallocate@?$_Default_allocator_traits@V?$allocator@U_Container_proxy@std@@@std@@@std@@SAXAEAV?$allocator@U_Container_proxy@std@@@2@QEAU_Container_proxy@2@_K@Z ; std::_Default_allocator_traits<std::allocator<std::_Container_proxy> >::deallocate
  00054	90		 npad	 1

; 1003 :     } else {
; 1004 :         using _Ptr_traits = pointer_traits<_Alloc_ptr_t<_Alloc>>;
; 1005 :         _Alloc_traits::deallocate(_Al, _Ptr_traits::pointer_to(*_Ptr), 1);
; 1006 :     }
; 1007 : }

  00055	48 8d a5 c8 00
	00 00		 lea	 rsp, QWORD PTR [rbp+200]
  0005c	5f		 pop	 rdi
  0005d	5d		 pop	 rbp
  0005e	c3		 ret	 0
??$_Deallocate_plain@V?$allocator@U_Container_proxy@std@@@std@@@std@@YAXAEAV?$allocator@U_Container_proxy@std@@@0@QEAU_Container_proxy@0@@Z ENDP ; std::_Deallocate_plain<std::allocator<std::_Container_proxy> >
_TEXT	ENDS
; Function compile flags: /Odtp /RTCsu /ZI
; File C:\Program Files (x86)\Microsoft Visual Studio\2019\Community\VC\Tools\MSVC\14.27.29110\include\type_traits
;	COMDAT ??$forward@PEAU_Container_base12@std@@@std@@YA$$QEAPEAU_Container_base12@0@AEAPEAU10@@Z
_TEXT	SEGMENT
_Arg$ = 224
??$forward@PEAU_Container_base12@std@@@std@@YA$$QEAPEAU_Container_base12@0@AEAPEAU10@@Z PROC ; std::forward<std::_Container_base12 *>, COMDAT

; 1454 :     remove_reference_t<_Ty>& _Arg) noexcept { // forward an lvalue as either an lvalue or an rvalue

$LN3:
  00000	48 89 4c 24 08	 mov	 QWORD PTR [rsp+8], rcx
  00005	55		 push	 rbp
  00006	57		 push	 rdi
  00007	48 81 ec e8 00
	00 00		 sub	 rsp, 232		; 000000e8H
  0000e	48 8d 6c 24 20	 lea	 rbp, QWORD PTR [rsp+32]
  00013	48 8b fc	 mov	 rdi, rsp
  00016	b9 3a 00 00 00	 mov	 ecx, 58			; 0000003aH
  0001b	b8 cc cc cc cc	 mov	 eax, -858993460		; ccccccccH
  00020	f3 ab		 rep stosd
  00022	48 8b 8c 24 08
	01 00 00	 mov	 rcx, QWORD PTR [rsp+264]
  0002a	48 8d 0d 00 00
	00 00		 lea	 rcx, OFFSET FLAT:__85A9AA98_type_traits
  00031	e8 00 00 00 00	 call	 __CheckForDebuggerJustMyCode

; 1455 :     return static_cast<_Ty&&>(_Arg);

  00036	48 8b 85 e0 00
	00 00		 mov	 rax, QWORD PTR _Arg$[rbp]

; 1456 : }

  0003d	48 8d a5 c8 00
	00 00		 lea	 rsp, QWORD PTR [rbp+200]
  00044	5f		 pop	 rdi
  00045	5d		 pop	 rbp
  00046	c3		 ret	 0
??$forward@PEAU_Container_base12@std@@@std@@YA$$QEAPEAU_Container_base12@0@AEAPEAU10@@Z ENDP ; std::forward<std::_Container_base12 *>
_TEXT	ENDS
; Function compile flags: /Odtp /RTCsu /ZI
; File C:\Program Files (x86)\Microsoft Visual Studio\2019\Community\VC\Tools\MSVC\14.27.29110\include\xstddef
;	COMDAT ??$addressof@U_Container_proxy@std@@@std@@YAPEAU_Container_proxy@0@AEAU10@@Z
_TEXT	SEGMENT
_Val$ = 224
??$addressof@U_Container_proxy@std@@@std@@YAPEAU_Container_proxy@0@AEAU10@@Z PROC ; std::addressof<std::_Container_proxy>, COMDAT

; 274  : _NODISCARD constexpr _Ty* addressof(_Ty& _Val) noexcept {

$LN3:
  00000	48 89 4c 24 08	 mov	 QWORD PTR [rsp+8], rcx
  00005	55		 push	 rbp
  00006	57		 push	 rdi
  00007	48 81 ec e8 00
	00 00		 sub	 rsp, 232		; 000000e8H
  0000e	48 8d 6c 24 20	 lea	 rbp, QWORD PTR [rsp+32]
  00013	48 8b fc	 mov	 rdi, rsp
  00016	b9 3a 00 00 00	 mov	 ecx, 58			; 0000003aH
  0001b	b8 cc cc cc cc	 mov	 eax, -858993460		; ccccccccH
  00020	f3 ab		 rep stosd
  00022	48 8b 8c 24 08
	01 00 00	 mov	 rcx, QWORD PTR [rsp+264]
  0002a	48 8d 0d 00 00
	00 00		 lea	 rcx, OFFSET FLAT:__38038D2D_xstddef
  00031	e8 00 00 00 00	 call	 __CheckForDebuggerJustMyCode

; 275  :     return __builtin_addressof(_Val);

  00036	48 8b 85 e0 00
	00 00		 mov	 rax, QWORD PTR _Val$[rbp]

; 276  : }

  0003d	48 8d a5 c8 00
	00 00		 lea	 rsp, QWORD PTR [rbp+200]
  00044	5f		 pop	 rdi
  00045	5d		 pop	 rbp
  00046	c3		 ret	 0
??$addressof@U_Container_proxy@std@@@std@@YAPEAU_Container_proxy@0@AEAU10@@Z ENDP ; std::addressof<std::_Container_proxy>
_TEXT	ENDS
; Function compile flags: /Odtp /RTCsu /ZI
; File C:\Program Files (x86)\Microsoft Visual Studio\2019\Community\VC\Tools\MSVC\14.27.29110\include\xmemory
;	COMDAT ??$_Get_size_of_n@$00@std@@YA_K_K@Z
_TEXT	SEGMENT
_Overflow_is_possible$ = 4
_Count$ = 256
??$_Get_size_of_n@$00@std@@YA_K_K@Z PROC		; std::_Get_size_of_n<1>, COMDAT

; 55   : _NODISCARD constexpr size_t _Get_size_of_n(const size_t _Count) {

$LN3:
  00000	48 89 4c 24 08	 mov	 QWORD PTR [rsp+8], rcx
  00005	55		 push	 rbp
  00006	57		 push	 rdi
  00007	48 81 ec 08 01
	00 00		 sub	 rsp, 264		; 00000108H
  0000e	48 8d 6c 24 20	 lea	 rbp, QWORD PTR [rsp+32]
  00013	48 8b fc	 mov	 rdi, rsp
  00016	b9 42 00 00 00	 mov	 ecx, 66			; 00000042H
  0001b	b8 cc cc cc cc	 mov	 eax, -858993460		; ccccccccH
  00020	f3 ab		 rep stosd
  00022	48 8b 8c 24 28
	01 00 00	 mov	 rcx, QWORD PTR [rsp+296]
  0002a	48 8d 0d 00 00
	00 00		 lea	 rcx, OFFSET FLAT:__A58979FC_xmemory
  00031	e8 00 00 00 00	 call	 __CheckForDebuggerJustMyCode

; 56   :     constexpr bool _Overflow_is_possible = _Ty_size > 1;

  00036	c6 45 04 00	 mov	 BYTE PTR _Overflow_is_possible$[rbp], 0

; 57   : 
; 58   :     if _CONSTEXPR_IF (_Overflow_is_possible) {
; 59   :         constexpr size_t _Max_possible = static_cast<size_t>(-1) / _Ty_size;
; 60   :         if (_Count > _Max_possible) {
; 61   :             _Throw_bad_array_new_length(); // multiply overflow
; 62   :         }
; 63   :     }
; 64   : 
; 65   :     return _Count * _Ty_size;

  0003a	48 8b 85 00 01
	00 00		 mov	 rax, QWORD PTR _Count$[rbp]

; 66   : }

  00041	48 8d a5 e8 00
	00 00		 lea	 rsp, QWORD PTR [rbp+232]
  00048	5f		 pop	 rdi
  00049	5d		 pop	 rbp
  0004a	c3		 ret	 0
??$_Get_size_of_n@$00@std@@YA_K_K@Z ENDP		; std::_Get_size_of_n<1>
_TEXT	ENDS
; Function compile flags: /Odtp /RTCsu /ZI
; File C:\Program Files (x86)\Microsoft Visual Studio\2019\Community\VC\Tools\MSVC\14.27.29110\include\xmemory
;	COMDAT ??$_Deallocate@$0BA@$0A@@std@@YAXPEAX_K@Z
_TEXT	SEGMENT
_Ptr$ = 224
_Bytes$ = 232
??$_Deallocate@$0BA@$0A@@std@@YAXPEAX_K@Z PROC		; std::_Deallocate<16,0>, COMDAT

; 213  : void _Deallocate(void* _Ptr, size_t _Bytes) noexcept {

$LN4:
  00000	48 89 54 24 10	 mov	 QWORD PTR [rsp+16], rdx
  00005	48 89 4c 24 08	 mov	 QWORD PTR [rsp+8], rcx
  0000a	55		 push	 rbp
  0000b	57		 push	 rdi
  0000c	48 81 ec e8 00
	00 00		 sub	 rsp, 232		; 000000e8H
  00013	48 8d 6c 24 20	 lea	 rbp, QWORD PTR [rsp+32]
  00018	48 8b fc	 mov	 rdi, rsp
  0001b	b9 3a 00 00 00	 mov	 ecx, 58			; 0000003aH
  00020	b8 cc cc cc cc	 mov	 eax, -858993460		; ccccccccH
  00025	f3 ab		 rep stosd
  00027	48 8b 8c 24 08
	01 00 00	 mov	 rcx, QWORD PTR [rsp+264]
  0002f	48 8d 0d 00 00
	00 00		 lea	 rcx, OFFSET FLAT:__A58979FC_xmemory
  00036	e8 00 00 00 00	 call	 __CheckForDebuggerJustMyCode

; 214  :     // deallocate storage allocated by _Allocate when !_HAS_ALIGNED_NEW || _Align <= __STDCPP_DEFAULT_NEW_ALIGNMENT__
; 215  : #if defined(_M_IX86) || defined(_M_X64)
; 216  :     if (_Bytes >= _Big_allocation_threshold) { // boost the alignment of big allocations to help autovectorization

  0003b	48 81 bd e8 00
	00 00 00 10 00
	00		 cmp	 QWORD PTR _Bytes$[rbp], 4096 ; 00001000H
  00046	72 13		 jb	 SHORT $LN2@Deallocate

; 217  :         _Adjust_manually_vector_aligned(_Ptr, _Bytes);

  00048	48 8d 95 e8 00
	00 00		 lea	 rdx, QWORD PTR _Bytes$[rbp]
  0004f	48 8d 8d e0 00
	00 00		 lea	 rcx, QWORD PTR _Ptr$[rbp]
  00056	e8 00 00 00 00	 call	 ?_Adjust_manually_vector_aligned@std@@YAXAEAPEAXAEA_K@Z ; std::_Adjust_manually_vector_aligned
$LN2@Deallocate:

; 218  :     }
; 219  : #endif // defined(_M_IX86) || defined(_M_X64)
; 220  : 
; 221  :     ::operator delete(_Ptr, _Bytes);

  0005b	48 8b 95 e8 00
	00 00		 mov	 rdx, QWORD PTR _Bytes$[rbp]
  00062	48 8b 8d e0 00
	00 00		 mov	 rcx, QWORD PTR _Ptr$[rbp]
  00069	e8 00 00 00 00	 call	 ??3@YAXPEAX_K@Z		; operator delete
  0006e	90		 npad	 1

; 222  : }

  0006f	48 8d a5 c8 00
	00 00		 lea	 rsp, QWORD PTR [rbp+200]
  00076	5f		 pop	 rdi
  00077	5d		 pop	 rbp
  00078	c3		 ret	 0
??$_Deallocate@$0BA@$0A@@std@@YAXPEAX_K@Z ENDP		; std::_Deallocate<16,0>
_TEXT	ENDS
; Function compile flags: /Odtp /RTCsu /ZI
; File C:\Program Files (x86)\Microsoft Visual Studio\2019\Community\VC\Tools\MSVC\14.27.29110\include\xmemory
;	COMDAT ??$_Allocate@$0BA@U_Default_allocate_traits@std@@$0A@@std@@YAPEAX_K@Z
_TEXT	SEGMENT
_Bytes$ = 224
??$_Allocate@$0BA@U_Default_allocate_traits@std@@$0A@@std@@YAPEAX_K@Z PROC ; std::_Allocate<16,std::_Default_allocate_traits,0>, COMDAT

; 197  : __declspec(allocator) void* _Allocate(const size_t _Bytes) {

$LN5:
  00000	48 89 4c 24 08	 mov	 QWORD PTR [rsp+8], rcx
  00005	55		 push	 rbp
  00006	57		 push	 rdi
  00007	48 81 ec e8 00
	00 00		 sub	 rsp, 232		; 000000e8H
  0000e	48 8d 6c 24 20	 lea	 rbp, QWORD PTR [rsp+32]
  00013	48 8b fc	 mov	 rdi, rsp
  00016	b9 3a 00 00 00	 mov	 ecx, 58			; 0000003aH
  0001b	b8 cc cc cc cc	 mov	 eax, -858993460		; ccccccccH
  00020	f3 ab		 rep stosd
  00022	48 8b 8c 24 08
	01 00 00	 mov	 rcx, QWORD PTR [rsp+264]
  0002a	48 8d 0d 00 00
	00 00		 lea	 rcx, OFFSET FLAT:__A58979FC_xmemory
  00031	e8 00 00 00 00	 call	 __CheckForDebuggerJustMyCode

; 198  :     // allocate _Bytes when !_HAS_ALIGNED_NEW || _Align <= __STDCPP_DEFAULT_NEW_ALIGNMENT__
; 199  : #if defined(_M_IX86) || defined(_M_X64)
; 200  :     if (_Bytes >= _Big_allocation_threshold) { // boost the alignment of big allocations to help autovectorization

  00036	48 81 bd e0 00
	00 00 00 10 00
	00		 cmp	 QWORD PTR _Bytes$[rbp], 4096 ; 00001000H
  00041	72 0e		 jb	 SHORT $LN2@Allocate

; 201  :         return _Allocate_manually_vector_aligned<_Traits>(_Bytes);

  00043	48 8b 8d e0 00
	00 00		 mov	 rcx, QWORD PTR _Bytes$[rbp]
  0004a	e8 00 00 00 00	 call	 ??$_Allocate_manually_vector_aligned@U_Default_allocate_traits@std@@@std@@YAPEAX_K@Z ; std::_Allocate_manually_vector_aligned<std::_Default_allocate_traits>
  0004f	eb 1a		 jmp	 SHORT $LN1@Allocate
$LN2@Allocate:

; 202  :     }
; 203  : #endif // defined(_M_IX86) || defined(_M_X64)
; 204  : 
; 205  :     if (_Bytes != 0) {

  00051	48 83 bd e0 00
	00 00 00	 cmp	 QWORD PTR _Bytes$[rbp], 0
  00059	74 0e		 je	 SHORT $LN3@Allocate

; 206  :         return _Traits::_Allocate(_Bytes);

  0005b	48 8b 8d e0 00
	00 00		 mov	 rcx, QWORD PTR _Bytes$[rbp]
  00062	e8 00 00 00 00	 call	 ?_Allocate@_Default_allocate_traits@std@@SAPEAX_K@Z ; std::_Default_allocate_traits::_Allocate
  00067	eb 02		 jmp	 SHORT $LN1@Allocate
$LN3@Allocate:

; 207  :     }
; 208  : 
; 209  :     return nullptr;

  00069	33 c0		 xor	 eax, eax
$LN1@Allocate:

; 210  : }

  0006b	48 8d a5 c8 00
	00 00		 lea	 rsp, QWORD PTR [rbp+200]
  00072	5f		 pop	 rdi
  00073	5d		 pop	 rbp
  00074	c3		 ret	 0
??$_Allocate@$0BA@U_Default_allocate_traits@std@@$0A@@std@@YAPEAX_K@Z ENDP ; std::_Allocate<16,std::_Default_allocate_traits,0>
_TEXT	ENDS
; Function compile flags: /Odtp /RTCsu /ZI
; File C:\Program Files (x86)\Microsoft Visual Studio\2019\Community\VC\Tools\MSVC\14.27.29110\include\xmemory
;	COMDAT ??$_Get_size_of_n@$0BA@@std@@YA_K_K@Z
_TEXT	SEGMENT
_Overflow_is_possible$ = 4
_Max_possible$1 = 40
_Count$ = 288
??$_Get_size_of_n@$0BA@@std@@YA_K_K@Z PROC		; std::_Get_size_of_n<16>, COMDAT

; 55   : _NODISCARD constexpr size_t _Get_size_of_n(const size_t _Count) {

$LN4:
  00000	48 89 4c 24 08	 mov	 QWORD PTR [rsp+8], rcx
  00005	55		 push	 rbp
  00006	57		 push	 rdi
  00007	48 81 ec 28 01
	00 00		 sub	 rsp, 296		; 00000128H
  0000e	48 8d 6c 24 20	 lea	 rbp, QWORD PTR [rsp+32]
  00013	48 8b fc	 mov	 rdi, rsp
  00016	b9 4a 00 00 00	 mov	 ecx, 74			; 0000004aH
  0001b	b8 cc cc cc cc	 mov	 eax, -858993460		; ccccccccH
  00020	f3 ab		 rep stosd
  00022	48 8b 8c 24 48
	01 00 00	 mov	 rcx, QWORD PTR [rsp+328]
  0002a	48 8d 0d 00 00
	00 00		 lea	 rcx, OFFSET FLAT:__A58979FC_xmemory
  00031	e8 00 00 00 00	 call	 __CheckForDebuggerJustMyCode

; 56   :     constexpr bool _Overflow_is_possible = _Ty_size > 1;

  00036	c6 45 04 01	 mov	 BYTE PTR _Overflow_is_possible$[rbp], 1

; 57   : 
; 58   :     if _CONSTEXPR_IF (_Overflow_is_possible) {
; 59   :         constexpr size_t _Max_possible = static_cast<size_t>(-1) / _Ty_size;

  0003a	48 b8 ff ff ff
	ff ff ff ff 0f	 mov	 rax, 1152921504606846975 ; 0fffffffffffffffH
  00044	48 89 45 28	 mov	 QWORD PTR _Max_possible$1[rbp], rax

; 60   :         if (_Count > _Max_possible) {

  00048	48 b8 ff ff ff
	ff ff ff ff 0f	 mov	 rax, 1152921504606846975 ; 0fffffffffffffffH
  00052	48 39 85 20 01
	00 00		 cmp	 QWORD PTR _Count$[rbp], rax
  00059	76 05		 jbe	 SHORT $LN2@Get_size_o

; 61   :             _Throw_bad_array_new_length(); // multiply overflow

  0005b	e8 00 00 00 00	 call	 ?_Throw_bad_array_new_length@std@@YAXXZ ; std::_Throw_bad_array_new_length
$LN2@Get_size_o:

; 62   :         }
; 63   :     }
; 64   : 
; 65   :     return _Count * _Ty_size;

  00060	48 6b 85 20 01
	00 00 10	 imul	 rax, QWORD PTR _Count$[rbp], 16
$LN3@Get_size_o:

; 66   : }

  00068	48 8d a5 08 01
	00 00		 lea	 rsp, QWORD PTR [rbp+264]
  0006f	5f		 pop	 rdi
  00070	5d		 pop	 rbp
  00071	c3		 ret	 0
??$_Get_size_of_n@$0BA@@std@@YA_K_K@Z ENDP		; std::_Get_size_of_n<16>
_TEXT	ENDS
; Function compile flags: /Odtp /RTCsu /ZI
; File C:\Program Files (x86)\Microsoft Visual Studio\2019\Community\VC\Tools\MSVC\14.27.29110\include\utility
;	COMDAT ??$max@_K@std@@YAAEB_KAEB_K0@Z
_TEXT	SEGMENT
$T1 = 200
tv65 = 216
_Left$ = 256
_Right$ = 264
??$max@_K@std@@YAAEB_KAEB_K0@Z PROC			; std::max<unsigned __int64>, COMDAT

; 42   :     const _Ty& _Left, const _Ty& _Right) noexcept(noexcept(_Left < _Right)) /* strengthened */ {

$LN5:
  00000	48 89 54 24 10	 mov	 QWORD PTR [rsp+16], rdx
  00005	48 89 4c 24 08	 mov	 QWORD PTR [rsp+8], rcx
  0000a	55		 push	 rbp
  0000b	57		 push	 rdi
  0000c	48 81 ec 08 01
	00 00		 sub	 rsp, 264		; 00000108H
  00013	48 8d 6c 24 20	 lea	 rbp, QWORD PTR [rsp+32]
  00018	48 8b fc	 mov	 rdi, rsp
  0001b	b9 42 00 00 00	 mov	 ecx, 66			; 00000042H
  00020	b8 cc cc cc cc	 mov	 eax, -858993460		; ccccccccH
  00025	f3 ab		 rep stosd
  00027	48 8b 8c 24 28
	01 00 00	 mov	 rcx, QWORD PTR [rsp+296]
  0002f	48 8d 0d 00 00
	00 00		 lea	 rcx, OFFSET FLAT:__CF1C1A3F_utility
  00036	e8 00 00 00 00	 call	 __CheckForDebuggerJustMyCode

; 43   :     // return larger of _Left and _Right
; 44   :     return _Left < _Right ? _Right : _Left;

  0003b	48 8b 85 00 01
	00 00		 mov	 rax, QWORD PTR _Left$[rbp]
  00042	48 8b 8d 08 01
	00 00		 mov	 rcx, QWORD PTR _Right$[rbp]
  00049	48 8b 09	 mov	 rcx, QWORD PTR [rcx]
  0004c	48 39 08	 cmp	 QWORD PTR [rax], rcx
  0004f	73 10		 jae	 SHORT $LN3@max
  00051	48 8b 85 08 01
	00 00		 mov	 rax, QWORD PTR _Right$[rbp]
  00058	48 89 85 d8 00
	00 00		 mov	 QWORD PTR tv65[rbp], rax
  0005f	eb 0e		 jmp	 SHORT $LN4@max
$LN3@max:
  00061	48 8b 85 00 01
	00 00		 mov	 rax, QWORD PTR _Left$[rbp]
  00068	48 89 85 d8 00
	00 00		 mov	 QWORD PTR tv65[rbp], rax
$LN4@max:
  0006f	48 8b 85 d8 00
	00 00		 mov	 rax, QWORD PTR tv65[rbp]
  00076	48 89 85 c8 00
	00 00		 mov	 QWORD PTR $T1[rbp], rax
  0007d	48 8b 85 c8 00
	00 00		 mov	 rax, QWORD PTR $T1[rbp]

; 45   : }

  00084	48 8d a5 e8 00
	00 00		 lea	 rsp, QWORD PTR [rbp+232]
  0008b	5f		 pop	 rdi
  0008c	5d		 pop	 rbp
  0008d	c3		 ret	 0
??$max@_K@std@@YAAEB_KAEB_K0@Z ENDP			; std::max<unsigned __int64>
_TEXT	ENDS
; Function compile flags: /Odtp /RTCsu /ZI
; File C:\Program Files (x86)\Microsoft Visual Studio\2019\Community\VC\Tools\MSVC\14.27.29110\include\xstddef
;	COMDAT ??$_Unfancy@D@std@@YAPEADPEAD@Z
_TEXT	SEGMENT
_Ptr$ = 224
??$_Unfancy@D@std@@YAPEADPEAD@Z PROC			; std::_Unfancy<char>, COMDAT

; 288  : _NODISCARD constexpr _Ty* _Unfancy(_Ty* _Ptr) noexcept { // do nothing for plain pointers

$LN3:
  00000	48 89 4c 24 08	 mov	 QWORD PTR [rsp+8], rcx
  00005	55		 push	 rbp
  00006	57		 push	 rdi
  00007	48 81 ec e8 00
	00 00		 sub	 rsp, 232		; 000000e8H
  0000e	48 8d 6c 24 20	 lea	 rbp, QWORD PTR [rsp+32]
  00013	48 8b fc	 mov	 rdi, rsp
  00016	b9 3a 00 00 00	 mov	 ecx, 58			; 0000003aH
  0001b	b8 cc cc cc cc	 mov	 eax, -858993460		; ccccccccH
  00020	f3 ab		 rep stosd
  00022	48 8b 8c 24 08
	01 00 00	 mov	 rcx, QWORD PTR [rsp+264]
  0002a	48 8d 0d 00 00
	00 00		 lea	 rcx, OFFSET FLAT:__38038D2D_xstddef
  00031	e8 00 00 00 00	 call	 __CheckForDebuggerJustMyCode

; 289  :     return _Ptr;

  00036	48 8b 85 e0 00
	00 00		 mov	 rax, QWORD PTR _Ptr$[rbp]

; 290  : }

  0003d	48 8d a5 c8 00
	00 00		 lea	 rsp, QWORD PTR [rbp+200]
  00044	5f		 pop	 rdi
  00045	5d		 pop	 rbp
  00046	c3		 ret	 0
??$_Unfancy@D@std@@YAPEADPEAD@Z ENDP			; std::_Unfancy<char>
_TEXT	ENDS
; Function compile flags: /Odtp /RTCsu /ZI
; File C:\Program Files (x86)\Microsoft Visual Studio\2019\Community\VC\Tools\MSVC\14.27.29110\include\xmemory
;	COMDAT ??$_Construct_in_place@PEADAEBQEAD@std@@YAXAEAPEADAEBQEAD@Z
_TEXT	SEGMENT
$T1 = 200
_Obj$ = 256
<_Args_0>$ = 264
??$_Construct_in_place@PEADAEBQEAD@std@@YAXAEAPEADAEBQEAD@Z PROC ; std::_Construct_in_place<char *,char * const &>, COMDAT

; 228  : void _Construct_in_place(_Ty& _Obj, _Types&&... _Args) noexcept(is_nothrow_constructible_v<_Ty, _Types...>) {

$LN3:
  00000	48 89 54 24 10	 mov	 QWORD PTR [rsp+16], rdx
  00005	48 89 4c 24 08	 mov	 QWORD PTR [rsp+8], rcx
  0000a	55		 push	 rbp
  0000b	57		 push	 rdi
  0000c	48 81 ec 08 01
	00 00		 sub	 rsp, 264		; 00000108H
  00013	48 8d 6c 24 20	 lea	 rbp, QWORD PTR [rsp+32]
  00018	48 8b fc	 mov	 rdi, rsp
  0001b	b9 42 00 00 00	 mov	 ecx, 66			; 00000042H
  00020	b8 cc cc cc cc	 mov	 eax, -858993460		; ccccccccH
  00025	f3 ab		 rep stosd
  00027	48 8b 8c 24 28
	01 00 00	 mov	 rcx, QWORD PTR [rsp+296]
  0002f	48 8d 0d 00 00
	00 00		 lea	 rcx, OFFSET FLAT:__A58979FC_xmemory
  00036	e8 00 00 00 00	 call	 __CheckForDebuggerJustMyCode
  0003b	48 8b 8d 00 01
	00 00		 mov	 rcx, QWORD PTR _Obj$[rbp]
  00042	e8 00 00 00 00	 call	 ??$addressof@PEAD@std@@YAPEAPEADAEAPEAD@Z ; std::addressof<char *>
  00047	48 8b d0	 mov	 rdx, rax
  0004a	b9 08 00 00 00	 mov	 ecx, 8
  0004f	e8 00 00 00 00	 call	 ??2@YAPEAX_KPEAX@Z	; operator new
  00054	48 89 85 c8 00
	00 00		 mov	 QWORD PTR $T1[rbp], rax
  0005b	48 8b 8d 08 01
	00 00		 mov	 rcx, QWORD PTR <_Args_0>$[rbp]
  00062	e8 00 00 00 00	 call	 ??$forward@AEBQEAD@std@@YAAEBQEADAEBQEAD@Z ; std::forward<char * const &>
  00067	48 8b 8d c8 00
	00 00		 mov	 rcx, QWORD PTR $T1[rbp]
  0006e	48 8b 00	 mov	 rax, QWORD PTR [rax]
  00071	48 89 01	 mov	 QWORD PTR [rcx], rax

; 229  :     ::new (const_cast<void*>(static_cast<const volatile void*>(_STD addressof(_Obj))))
; 230  :         _Ty(_STD forward<_Types>(_Args)...);
; 231  : }

  00074	48 8d a5 e8 00
	00 00		 lea	 rsp, QWORD PTR [rbp+232]
  0007b	5f		 pop	 rdi
  0007c	5d		 pop	 rbp
  0007d	c3		 ret	 0
??$_Construct_in_place@PEADAEBQEAD@std@@YAXAEAPEADAEBQEAD@Z ENDP ; std::_Construct_in_place<char *,char * const &>
_TEXT	ENDS
; Function compile flags: /Odtp /RTCsu /ZI
; File C:\Program Files (x86)\Microsoft Visual Studio\2019\Community\VC\Tools\MSVC\14.27.29110\include\xstring
;	COMDAT ??$_Reallocate_for@V<lambda_66f57f934f28d61049862f64df852ff0>@@PEBD@?$basic_string@DU?$char_traits@D@std@@V?$allocator@D@2@@std@@AEAAAEAV01@_KV<lambda_66f57f934f28d61049862f64df852ff0>@@PEBD@Z
_TEXT	SEGMENT
_Old_capacity$ = 8
_New_capacity$ = 40
_Al$ = 72
_New_ptr$ = 104
__$ArrayPad$ = 312
this$ = 352
_New_size$ = 360
_Fn$ = 368
<_Args_0>$ = 376
??$_Reallocate_for@V<lambda_66f57f934f28d61049862f64df852ff0>@@PEBD@?$basic_string@DU?$char_traits@D@std@@V?$allocator@D@2@@std@@AEAAAEAV01@_KV<lambda_66f57f934f28d61049862f64df852ff0>@@PEBD@Z PROC ; std::basic_string<char,std::char_traits<char>,std::allocator<char> >::_Reallocate_for<<lambda_66f57f934f28d61049862f64df852ff0>,char const *>, COMDAT

; 4218 :     basic_string& _Reallocate_for(const size_type _New_size, _Fty _Fn, _ArgTys... _Args) {

$LN6:
  00000	4c 89 4c 24 20	 mov	 QWORD PTR [rsp+32], r9
  00005	44 88 44 24 18	 mov	 BYTE PTR [rsp+24], r8b
  0000a	48 89 54 24 10	 mov	 QWORD PTR [rsp+16], rdx
  0000f	48 89 4c 24 08	 mov	 QWORD PTR [rsp+8], rcx
  00014	55		 push	 rbp
  00015	57		 push	 rdi
  00016	48 81 ec 68 01
	00 00		 sub	 rsp, 360		; 00000168H
  0001d	48 8d 6c 24 20	 lea	 rbp, QWORD PTR [rsp+32]
  00022	48 8b fc	 mov	 rdi, rsp
  00025	b9 5a 00 00 00	 mov	 ecx, 90			; 0000005aH
  0002a	b8 cc cc cc cc	 mov	 eax, -858993460		; ccccccccH
  0002f	f3 ab		 rep stosd
  00031	48 8b 8c 24 88
	01 00 00	 mov	 rcx, QWORD PTR [rsp+392]
  00039	48 8b 05 00 00
	00 00		 mov	 rax, QWORD PTR __security_cookie
  00040	48 33 c5	 xor	 rax, rbp
  00043	48 89 85 38 01
	00 00		 mov	 QWORD PTR __$ArrayPad$[rbp], rax
  0004a	48 8d 0d 00 00
	00 00		 lea	 rcx, OFFSET FLAT:__D15AFF60_xstring
  00051	e8 00 00 00 00	 call	 __CheckForDebuggerJustMyCode

; 4219 :         // reallocate to store exactly _New_size elements, new buffer prepared by
; 4220 :         // _Fn(_New_ptr, _New_size, _Args...)
; 4221 :         if (_New_size > max_size()) {

  00056	48 8b 8d 60 01
	00 00		 mov	 rcx, QWORD PTR this$[rbp]
  0005d	e8 00 00 00 00	 call	 ?max_size@?$basic_string@DU?$char_traits@D@std@@V?$allocator@D@2@@std@@QEBA_KXZ ; std::basic_string<char,std::char_traits<char>,std::allocator<char> >::max_size
  00062	48 39 85 68 01
	00 00		 cmp	 QWORD PTR _New_size$[rbp], rax
  00069	76 05		 jbe	 SHORT $LN2@Reallocate

; 4222 :             _Xlen_string(); // result too long

  0006b	e8 00 00 00 00	 call	 ?_Xlen_string@std@@YAXXZ ; std::_Xlen_string
$LN2@Reallocate:

; 4223 :         }
; 4224 : 
; 4225 :         const size_type _Old_capacity = _Mypair._Myval2._Myres;

  00070	48 8b 85 60 01
	00 00		 mov	 rax, QWORD PTR this$[rbp]
  00077	48 8b 40 20	 mov	 rax, QWORD PTR [rax+32]
  0007b	48 89 45 08	 mov	 QWORD PTR _Old_capacity$[rbp], rax

; 4226 :         const size_type _New_capacity = _Calculate_growth(_New_size);

  0007f	48 8b 95 68 01
	00 00		 mov	 rdx, QWORD PTR _New_size$[rbp]
  00086	48 8b 8d 60 01
	00 00		 mov	 rcx, QWORD PTR this$[rbp]
  0008d	e8 00 00 00 00	 call	 ?_Calculate_growth@?$basic_string@DU?$char_traits@D@std@@V?$allocator@D@2@@std@@AEBA_K_K@Z ; std::basic_string<char,std::char_traits<char>,std::allocator<char> >::_Calculate_growth
  00092	48 89 45 28	 mov	 QWORD PTR _New_capacity$[rbp], rax

; 4227 :         auto& _Al                     = _Getal();

  00096	48 8b 8d 60 01
	00 00		 mov	 rcx, QWORD PTR this$[rbp]
  0009d	e8 00 00 00 00	 call	 ?_Getal@?$basic_string@DU?$char_traits@D@std@@V?$allocator@D@2@@std@@AEAAAEAV?$allocator@D@2@XZ ; std::basic_string<char,std::char_traits<char>,std::allocator<char> >::_Getal
  000a2	48 89 45 48	 mov	 QWORD PTR _Al$[rbp], rax

; 4228 :         const pointer _New_ptr        = _Al.allocate(_New_capacity + 1); // throws

  000a6	48 8b 45 28	 mov	 rax, QWORD PTR _New_capacity$[rbp]
  000aa	48 83 c0 01	 add	 rax, 1
  000ae	48 c7 c1 ff ff
	ff ff		 mov	 rcx, -1
  000b5	48 0f 42 c1	 cmovb	 rax, rcx
  000b9	48 8b d0	 mov	 rdx, rax
  000bc	48 8b 4d 48	 mov	 rcx, QWORD PTR _Al$[rbp]
  000c0	e8 00 00 00 00	 call	 ?allocate@?$allocator@D@std@@QEAAPEAD_K@Z ; std::allocator<char>::allocate
  000c5	48 89 45 68	 mov	 QWORD PTR _New_ptr$[rbp], rax

; 4229 :         _Mypair._Myval2._Orphan_all();

  000c9	48 8b 85 60 01
	00 00		 mov	 rax, QWORD PTR this$[rbp]
  000d0	48 8b c8	 mov	 rcx, rax
  000d3	e8 00 00 00 00	 call	 ?_Orphan_all@_Container_base12@std@@QEAAXXZ ; std::_Container_base12::_Orphan_all

; 4230 :         _Mypair._Myval2._Mysize = _New_size;

  000d8	48 8b 85 60 01
	00 00		 mov	 rax, QWORD PTR this$[rbp]
  000df	48 8b 8d 68 01
	00 00		 mov	 rcx, QWORD PTR _New_size$[rbp]
  000e6	48 89 48 18	 mov	 QWORD PTR [rax+24], rcx

; 4231 :         _Mypair._Myval2._Myres  = _New_capacity;

  000ea	48 8b 85 60 01
	00 00		 mov	 rax, QWORD PTR this$[rbp]
  000f1	48 8b 4d 28	 mov	 rcx, QWORD PTR _New_capacity$[rbp]
  000f5	48 89 48 20	 mov	 QWORD PTR [rax+32], rcx

; 4232 :         _Fn(_Unfancy(_New_ptr), _New_size, _Args...);

  000f9	48 8b 4d 68	 mov	 rcx, QWORD PTR _New_ptr$[rbp]
  000fd	e8 00 00 00 00	 call	 ??$_Unfancy@D@std@@YAPEADPEAD@Z ; std::_Unfancy<char>
  00102	4c 8b 8d 78 01
	00 00		 mov	 r9, QWORD PTR <_Args_0>$[rbp]
  00109	4c 8b 85 68 01
	00 00		 mov	 r8, QWORD PTR _New_size$[rbp]
  00110	48 8b d0	 mov	 rdx, rax
  00113	48 8d 8d 70 01
	00 00		 lea	 rcx, QWORD PTR _Fn$[rbp]
  0011a	e8 00 00 00 00	 call	 ??R<lambda_66f57f934f28d61049862f64df852ff0>@@QEBAXQEAD_KQEBD@Z ; <lambda_66f57f934f28d61049862f64df852ff0>::operator()

; 4233 :         if (_BUF_SIZE <= _Old_capacity) {

  0011f	48 83 7d 08 10	 cmp	 QWORD PTR _Old_capacity$[rbp], 16
  00124	72 2f		 jb	 SHORT $LN3@Reallocate

; 4234 :             _Al.deallocate(_Mypair._Myval2._Bx._Ptr, _Old_capacity + 1);

  00126	48 8b 45 08	 mov	 rax, QWORD PTR _Old_capacity$[rbp]
  0012a	48 ff c0	 inc	 rax
  0012d	4c 8b c0	 mov	 r8, rax
  00130	48 8b 85 60 01
	00 00		 mov	 rax, QWORD PTR this$[rbp]
  00137	48 8b 50 08	 mov	 rdx, QWORD PTR [rax+8]
  0013b	48 8b 4d 48	 mov	 rcx, QWORD PTR _Al$[rbp]
  0013f	e8 00 00 00 00	 call	 ?deallocate@?$allocator@D@std@@QEAAXQEAD_K@Z ; std::allocator<char>::deallocate

; 4235 :             _Mypair._Myval2._Bx._Ptr = _New_ptr;

  00144	48 8b 85 60 01
	00 00		 mov	 rax, QWORD PTR this$[rbp]
  0014b	48 8b 4d 68	 mov	 rcx, QWORD PTR _New_ptr$[rbp]
  0014f	48 89 48 08	 mov	 QWORD PTR [rax+8], rcx

; 4236 :         } else {

  00153	eb 17		 jmp	 SHORT $LN4@Reallocate
$LN3@Reallocate:

; 4237 :             _Construct_in_place(_Mypair._Myval2._Bx._Ptr, _New_ptr);

  00155	48 8b 85 60 01
	00 00		 mov	 rax, QWORD PTR this$[rbp]
  0015c	48 83 c0 08	 add	 rax, 8
  00160	48 8d 55 68	 lea	 rdx, QWORD PTR _New_ptr$[rbp]
  00164	48 8b c8	 mov	 rcx, rax
  00167	e8 00 00 00 00	 call	 ??$_Construct_in_place@PEADAEBQEAD@std@@YAXAEAPEADAEBQEAD@Z ; std::_Construct_in_place<char *,char * const &>
$LN4@Reallocate:

; 4238 :         }
; 4239 : 
; 4240 :         return *this;

  0016c	48 8b 85 60 01
	00 00		 mov	 rax, QWORD PTR this$[rbp]
$LN5@Reallocate:

; 4241 :     }

  00173	48 8b f8	 mov	 rdi, rax
  00176	48 8d 4d e0	 lea	 rcx, QWORD PTR [rbp-32]
  0017a	48 8d 15 00 00
	00 00		 lea	 rdx, OFFSET FLAT:??$_Reallocate_for@V<lambda_66f57f934f28d61049862f64df852ff0>@@PEBD@?$basic_string@DU?$char_traits@D@std@@V?$allocator@D@2@@std@@AEAAAEAV01@_KV<lambda_66f57f934f28d61049862f64df852ff0>@@PEBD@Z$rtcFrameData
  00181	e8 00 00 00 00	 call	 _RTC_CheckStackVars
  00186	48 8b c7	 mov	 rax, rdi
  00189	48 8b 8d 38 01
	00 00		 mov	 rcx, QWORD PTR __$ArrayPad$[rbp]
  00190	48 33 cd	 xor	 rcx, rbp
  00193	e8 00 00 00 00	 call	 __security_check_cookie
  00198	48 8d a5 48 01
	00 00		 lea	 rsp, QWORD PTR [rbp+328]
  0019f	5f		 pop	 rdi
  001a0	5d		 pop	 rbp
  001a1	c3		 ret	 0
??$_Reallocate_for@V<lambda_66f57f934f28d61049862f64df852ff0>@@PEBD@?$basic_string@DU?$char_traits@D@std@@V?$allocator@D@2@@std@@AEAAAEAV01@_KV<lambda_66f57f934f28d61049862f64df852ff0>@@PEBD@Z ENDP ; std::basic_string<char,std::char_traits<char>,std::allocator<char> >::_Reallocate_for<<lambda_66f57f934f28d61049862f64df852ff0>,char const *>
_TEXT	ENDS
; Function compile flags: /Odtp /RTCsu /ZI
; File C:\Program Files (x86)\Microsoft Visual Studio\2019\Community\VC\Tools\MSVC\14.27.29110\include\xstring
;	COMDAT ??R<lambda_66f57f934f28d61049862f64df852ff0>@@QEBAXQEAD_KQEBD@Z
_TEXT	SEGMENT
$T1 = 196
this$ = 256
_New_ptr$ = 264
_Count$ = 272
_Ptr$ = 280
??R<lambda_66f57f934f28d61049862f64df852ff0>@@QEBAXQEAD_KQEBD@Z PROC ; <lambda_66f57f934f28d61049862f64df852ff0>::operator(), COMDAT

; 2976 :             [](_Elem* const _New_ptr, const size_type _Count, const _Elem* const _Ptr) {

$LN3:
  00000	4c 89 4c 24 20	 mov	 QWORD PTR [rsp+32], r9
  00005	4c 89 44 24 18	 mov	 QWORD PTR [rsp+24], r8
  0000a	48 89 54 24 10	 mov	 QWORD PTR [rsp+16], rdx
  0000f	48 89 4c 24 08	 mov	 QWORD PTR [rsp+8], rcx
  00014	55		 push	 rbp
  00015	57		 push	 rdi
  00016	48 81 ec 08 01
	00 00		 sub	 rsp, 264		; 00000108H
  0001d	48 8d 6c 24 20	 lea	 rbp, QWORD PTR [rsp+32]
  00022	48 8b fc	 mov	 rdi, rsp
  00025	b9 42 00 00 00	 mov	 ecx, 66			; 00000042H
  0002a	b8 cc cc cc cc	 mov	 eax, -858993460		; ccccccccH
  0002f	f3 ab		 rep stosd
  00031	48 8b 8c 24 28
	01 00 00	 mov	 rcx, QWORD PTR [rsp+296]
  00039	48 8d 0d 00 00
	00 00		 lea	 rcx, OFFSET FLAT:__D15AFF60_xstring
  00040	e8 00 00 00 00	 call	 __CheckForDebuggerJustMyCode

; 2977 :                 _Traits::copy(_New_ptr, _Ptr, _Count);

  00045	4c 8b 85 10 01
	00 00		 mov	 r8, QWORD PTR _Count$[rbp]
  0004c	48 8b 95 18 01
	00 00		 mov	 rdx, QWORD PTR _Ptr$[rbp]
  00053	48 8b 8d 08 01
	00 00		 mov	 rcx, QWORD PTR _New_ptr$[rbp]
  0005a	e8 00 00 00 00	 call	 ?copy@?$_Narrow_char_traits@DH@std@@SAPEADQEADQEBD_K@Z ; std::_Narrow_char_traits<char,int>::copy

; 2978 :                 _Traits::assign(_New_ptr[_Count], _Elem());

  0005f	c6 85 c4 00 00
	00 00		 mov	 BYTE PTR $T1[rbp], 0
  00066	48 8b 85 10 01
	00 00		 mov	 rax, QWORD PTR _Count$[rbp]
  0006d	48 8b 8d 08 01
	00 00		 mov	 rcx, QWORD PTR _New_ptr$[rbp]
  00074	48 03 c8	 add	 rcx, rax
  00077	48 8b c1	 mov	 rax, rcx
  0007a	48 8d 95 c4 00
	00 00		 lea	 rdx, QWORD PTR $T1[rbp]
  00081	48 8b c8	 mov	 rcx, rax
  00084	e8 00 00 00 00	 call	 ?assign@?$_Narrow_char_traits@DH@std@@SAXAEADAEBD@Z ; std::_Narrow_char_traits<char,int>::assign

; 2979 :             },

  00089	48 8d a5 e8 00
	00 00		 lea	 rsp, QWORD PTR [rbp+232]
  00090	5f		 pop	 rdi
  00091	5d		 pop	 rbp
  00092	c3		 ret	 0
??R<lambda_66f57f934f28d61049862f64df852ff0>@@QEBAXQEAD_KQEBD@Z ENDP ; <lambda_66f57f934f28d61049862f64df852ff0>::operator()
_TEXT	ENDS
; Function compile flags: /Odtp /RTCsu /ZI
; File C:\Program Files (x86)\Microsoft Visual Studio\2019\Community\VC\Tools\MSVC\14.27.29110\include\xmemory
;	COMDAT ??$_Destroy_in_place@PEAD@std@@YAXAEAPEAD@Z
_TEXT	SEGMENT
_Obj$ = 224
??$_Destroy_in_place@PEAD@std@@YAXAEAPEAD@Z PROC	; std::_Destroy_in_place<char *>, COMDAT

; 267  : void _Destroy_in_place(_Ty& _Obj) noexcept {

$LN3:
  00000	48 89 4c 24 08	 mov	 QWORD PTR [rsp+8], rcx
  00005	55		 push	 rbp
  00006	57		 push	 rdi
  00007	48 81 ec e8 00
	00 00		 sub	 rsp, 232		; 000000e8H
  0000e	48 8d 6c 24 20	 lea	 rbp, QWORD PTR [rsp+32]
  00013	48 8b fc	 mov	 rdi, rsp
  00016	b9 3a 00 00 00	 mov	 ecx, 58			; 0000003aH
  0001b	b8 cc cc cc cc	 mov	 eax, -858993460		; ccccccccH
  00020	f3 ab		 rep stosd
  00022	48 8b 8c 24 08
	01 00 00	 mov	 rcx, QWORD PTR [rsp+264]
  0002a	48 8d 0d 00 00
	00 00		 lea	 rcx, OFFSET FLAT:__A58979FC_xmemory
  00031	e8 00 00 00 00	 call	 __CheckForDebuggerJustMyCode
  00036	90		 npad	 1

; 268  :     _Obj.~_Ty();
; 269  : }

  00037	48 8d a5 c8 00
	00 00		 lea	 rsp, QWORD PTR [rbp+200]
  0003e	5f		 pop	 rdi
  0003f	5d		 pop	 rbp
  00040	c3		 ret	 0
??$_Destroy_in_place@PEAD@std@@YAXAEAPEAD@Z ENDP	; std::_Destroy_in_place<char *>
_TEXT	ENDS
; Function compile flags: /Odtp /RTCsu /ZI
; File C:\Program Files (x86)\Microsoft Visual Studio\2019\Community\VC\Tools\MSVC\14.27.29110\include\xstddef
;	COMDAT ??$_Unfancy@U_Container_proxy@std@@@std@@YAPEAU_Container_proxy@0@PEAU10@@Z
_TEXT	SEGMENT
_Ptr$ = 224
??$_Unfancy@U_Container_proxy@std@@@std@@YAPEAU_Container_proxy@0@PEAU10@@Z PROC ; std::_Unfancy<std::_Container_proxy>, COMDAT

; 288  : _NODISCARD constexpr _Ty* _Unfancy(_Ty* _Ptr) noexcept { // do nothing for plain pointers

$LN3:
  00000	48 89 4c 24 08	 mov	 QWORD PTR [rsp+8], rcx
  00005	55		 push	 rbp
  00006	57		 push	 rdi
  00007	48 81 ec e8 00
	00 00		 sub	 rsp, 232		; 000000e8H
  0000e	48 8d 6c 24 20	 lea	 rbp, QWORD PTR [rsp+32]
  00013	48 8b fc	 mov	 rdi, rsp
  00016	b9 3a 00 00 00	 mov	 ecx, 58			; 0000003aH
  0001b	b8 cc cc cc cc	 mov	 eax, -858993460		; ccccccccH
  00020	f3 ab		 rep stosd
  00022	48 8b 8c 24 08
	01 00 00	 mov	 rcx, QWORD PTR [rsp+264]
  0002a	48 8d 0d 00 00
	00 00		 lea	 rcx, OFFSET FLAT:__38038D2D_xstddef
  00031	e8 00 00 00 00	 call	 __CheckForDebuggerJustMyCode

; 289  :     return _Ptr;

  00036	48 8b 85 e0 00
	00 00		 mov	 rax, QWORD PTR _Ptr$[rbp]

; 290  : }

  0003d	48 8d a5 c8 00
	00 00		 lea	 rsp, QWORD PTR [rbp+200]
  00044	5f		 pop	 rdi
  00045	5d		 pop	 rbp
  00046	c3		 ret	 0
??$_Unfancy@U_Container_proxy@std@@@std@@YAPEAU_Container_proxy@0@PEAU10@@Z ENDP ; std::_Unfancy<std::_Container_proxy>
_TEXT	ENDS
; Function compile flags: /Odtp /RTCsu /ZI
; File C:\Program Files (x86)\Microsoft Visual Studio\2019\Community\VC\Tools\MSVC\14.27.29110\include\xmemory
;	COMDAT ??$?0$$V@?$_Compressed_pair@V?$allocator@D@std@@V?$_String_val@U?$_Simple_types@D@std@@@2@$00@std@@QEAA@U_Zero_then_variadic_args_t@1@@Z
_TEXT	SEGMENT
this$ = 224
__formal$ = 232
??$?0$$V@?$_Compressed_pair@V?$allocator@D@std@@V?$_String_val@U?$_Simple_types@D@std@@@2@$00@std@@QEAA@U_Zero_then_variadic_args_t@1@@Z PROC ; std::_Compressed_pair<std::allocator<char>,std::_String_val<std::_Simple_types<char> >,1>::_Compressed_pair<std::allocator<char>,std::_String_val<std::_Simple_types<char> >,1><>, COMDAT

; 1336 :         : _Ty1(), _Myval2(_STD forward<_Other2>(_Val2)...) {}

$LN4:
  00000	88 54 24 10	 mov	 BYTE PTR [rsp+16], dl
  00004	48 89 4c 24 08	 mov	 QWORD PTR [rsp+8], rcx
  00009	55		 push	 rbp
  0000a	57		 push	 rdi
  0000b	48 81 ec e8 00
	00 00		 sub	 rsp, 232		; 000000e8H
  00012	48 8d 6c 24 20	 lea	 rbp, QWORD PTR [rsp+32]
  00017	48 8b fc	 mov	 rdi, rsp
  0001a	b9 3a 00 00 00	 mov	 ecx, 58			; 0000003aH
  0001f	b8 cc cc cc cc	 mov	 eax, -858993460		; ccccccccH
  00024	f3 ab		 rep stosd
  00026	48 8b 8c 24 08
	01 00 00	 mov	 rcx, QWORD PTR [rsp+264]
  0002e	48 8d 0d 00 00
	00 00		 lea	 rcx, OFFSET FLAT:__A58979FC_xmemory
  00035	e8 00 00 00 00	 call	 __CheckForDebuggerJustMyCode
  0003a	48 8b 8d e0 00
	00 00		 mov	 rcx, QWORD PTR this$[rbp]
  00041	e8 00 00 00 00	 call	 ??0?$allocator@D@std@@QEAA@XZ ; std::allocator<char>::allocator<char>
  00046	48 8b 85 e0 00
	00 00		 mov	 rax, QWORD PTR this$[rbp]
  0004d	48 8b c8	 mov	 rcx, rax
  00050	e8 00 00 00 00	 call	 ??0?$_String_val@U?$_Simple_types@D@std@@@std@@QEAA@XZ ; std::_String_val<std::_Simple_types<char> >::_String_val<std::_Simple_types<char> >
  00055	48 8b 85 e0 00
	00 00		 mov	 rax, QWORD PTR this$[rbp]
  0005c	48 8d a5 c8 00
	00 00		 lea	 rsp, QWORD PTR [rbp+200]
  00063	5f		 pop	 rdi
  00064	5d		 pop	 rbp
  00065	c3		 ret	 0
??$?0$$V@?$_Compressed_pair@V?$allocator@D@std@@V?$_String_val@U?$_Simple_types@D@std@@@2@$00@std@@QEAA@U_Zero_then_variadic_args_t@1@@Z ENDP ; std::_Compressed_pair<std::allocator<char>,std::_String_val<std::_Simple_types<char> >,1>::_Compressed_pair<std::allocator<char>,std::_String_val<std::_Simple_types<char> >,1><>
_TEXT	ENDS
; Function compile flags: /Odtp /RTCsu /ZI
; File C:\Program Files (x86)\Microsoft Visual Studio\2019\Community\VC\Tools\MSVC\14.27.29110\include\xmemory
;	COMDAT ??$?0D@?$allocator@U_Container_proxy@std@@@std@@QEAA@AEBV?$allocator@D@1@@Z
_TEXT	SEGMENT
this$ = 224
__formal$ = 232
??$?0D@?$allocator@U_Container_proxy@std@@@std@@QEAA@AEBV?$allocator@D@1@@Z PROC ; std::allocator<std::_Container_proxy>::allocator<std::_Container_proxy><char>, COMDAT

; 799  :     constexpr allocator(const allocator<_Other>&) noexcept {}

$LN3:
  00000	48 89 54 24 10	 mov	 QWORD PTR [rsp+16], rdx
  00005	48 89 4c 24 08	 mov	 QWORD PTR [rsp+8], rcx
  0000a	55		 push	 rbp
  0000b	57		 push	 rdi
  0000c	48 81 ec e8 00
	00 00		 sub	 rsp, 232		; 000000e8H
  00013	48 8d 6c 24 20	 lea	 rbp, QWORD PTR [rsp+32]
  00018	48 8b fc	 mov	 rdi, rsp
  0001b	b9 3a 00 00 00	 mov	 ecx, 58			; 0000003aH
  00020	b8 cc cc cc cc	 mov	 eax, -858993460		; ccccccccH
  00025	f3 ab		 rep stosd
  00027	48 8b 8c 24 08
	01 00 00	 mov	 rcx, QWORD PTR [rsp+264]
  0002f	48 8d 0d 00 00
	00 00		 lea	 rcx, OFFSET FLAT:__A58979FC_xmemory
  00036	e8 00 00 00 00	 call	 __CheckForDebuggerJustMyCode
  0003b	48 8b 85 e0 00
	00 00		 mov	 rax, QWORD PTR this$[rbp]
  00042	48 8d a5 c8 00
	00 00		 lea	 rsp, QWORD PTR [rbp+200]
  00049	5f		 pop	 rdi
  0004a	5d		 pop	 rbp
  0004b	c3		 ret	 0
??$?0D@?$allocator@U_Container_proxy@std@@@std@@QEAA@AEBV?$allocator@D@1@@Z ENDP ; std::allocator<std::_Container_proxy>::allocator<std::_Container_proxy><char>
_TEXT	ENDS
; Function compile flags: /Odtp /RTCsu /ZI
; File C:\Program Files (x86)\Microsoft Visual Studio\2019\Community\VC\Tools\MSVC\14.27.29110\include\xmemory
;	COMDAT ??1?$_Container_proxy_ptr12@V?$allocator@U_Container_proxy@std@@@std@@@std@@QEAA@XZ
_TEXT	SEGMENT
this$ = 224
??1?$_Container_proxy_ptr12@V?$allocator@U_Container_proxy@std@@@std@@@std@@QEAA@XZ PROC ; std::_Container_proxy_ptr12<std::allocator<std::_Container_proxy> >::~_Container_proxy_ptr12<std::allocator<std::_Container_proxy> >, COMDAT

; 1300 :     ~_Container_proxy_ptr12() {

$LN4:
  00000	48 89 4c 24 08	 mov	 QWORD PTR [rsp+8], rcx
  00005	55		 push	 rbp
  00006	57		 push	 rdi
  00007	48 81 ec e8 00
	00 00		 sub	 rsp, 232		; 000000e8H
  0000e	48 8d 6c 24 20	 lea	 rbp, QWORD PTR [rsp+32]
  00013	48 8b fc	 mov	 rdi, rsp
  00016	b9 3a 00 00 00	 mov	 ecx, 58			; 0000003aH
  0001b	b8 cc cc cc cc	 mov	 eax, -858993460		; ccccccccH
  00020	f3 ab		 rep stosd
  00022	48 8b 8c 24 08
	01 00 00	 mov	 rcx, QWORD PTR [rsp+264]
  0002a	48 8d 0d 00 00
	00 00		 lea	 rcx, OFFSET FLAT:__A58979FC_xmemory
  00031	e8 00 00 00 00	 call	 __CheckForDebuggerJustMyCode

; 1301 :         if (_Ptr) {

  00036	48 8b 85 e0 00
	00 00		 mov	 rax, QWORD PTR this$[rbp]
  0003d	48 83 38 00	 cmp	 QWORD PTR [rax], 0
  00041	74 1b		 je	 SHORT $LN2@Container_

; 1302 :             _Delete_plain_internal(_Al, _Ptr);

  00043	48 8b 85 e0 00
	00 00		 mov	 rax, QWORD PTR this$[rbp]
  0004a	48 8b 10	 mov	 rdx, QWORD PTR [rax]
  0004d	48 8b 85 e0 00
	00 00		 mov	 rax, QWORD PTR this$[rbp]
  00054	48 8b 48 08	 mov	 rcx, QWORD PTR [rax+8]
  00058	e8 00 00 00 00	 call	 ??$_Delete_plain_internal@V?$allocator@U_Container_proxy@std@@@std@@@std@@YAXAEAV?$allocator@U_Container_proxy@std@@@0@QEAU_Container_proxy@0@@Z ; std::_Delete_plain_internal<std::allocator<std::_Container_proxy> >
  0005d	90		 npad	 1
$LN2@Container_:

; 1303 :         }
; 1304 :     }

  0005e	48 8d a5 c8 00
	00 00		 lea	 rsp, QWORD PTR [rbp+200]
  00065	5f		 pop	 rdi
  00066	5d		 pop	 rbp
  00067	c3		 ret	 0
??1?$_Container_proxy_ptr12@V?$allocator@U_Container_proxy@std@@@std@@@std@@QEAA@XZ ENDP ; std::_Container_proxy_ptr12<std::allocator<std::_Container_proxy> >::~_Container_proxy_ptr12<std::allocator<std::_Container_proxy> >
_TEXT	ENDS
; Function compile flags: /Odtp /RTCsu /ZI
; File C:\Program Files (x86)\Microsoft Visual Studio\2019\Community\VC\Tools\MSVC\14.27.29110\include\xmemory
;	COMDAT ??0?$_Container_proxy_ptr12@V?$allocator@U_Container_proxy@std@@@std@@@std@@QEAA@AEAV?$allocator@U_Container_proxy@std@@@1@AEAU_Container_base12@1@@Z
_TEXT	SEGMENT
$T1 = 200
this$ = 256
_Al_$ = 264
_Mycont$ = 272
??0?$_Container_proxy_ptr12@V?$allocator@U_Container_proxy@std@@@std@@@std@@QEAA@AEAV?$allocator@U_Container_proxy@std@@@1@AEAU_Container_base12@1@@Z PROC ; std::_Container_proxy_ptr12<std::allocator<std::_Container_proxy> >::_Container_proxy_ptr12<std::allocator<std::_Container_proxy> >, COMDAT

; 1286 :     _Container_proxy_ptr12(_Alloc& _Al_, _Container_base12& _Mycont)

$LN3:
  00000	4c 89 44 24 18	 mov	 QWORD PTR [rsp+24], r8
  00005	48 89 54 24 10	 mov	 QWORD PTR [rsp+16], rdx
  0000a	48 89 4c 24 08	 mov	 QWORD PTR [rsp+8], rcx
  0000f	55		 push	 rbp
  00010	57		 push	 rdi
  00011	48 81 ec 08 01
	00 00		 sub	 rsp, 264		; 00000108H
  00018	48 8d 6c 24 20	 lea	 rbp, QWORD PTR [rsp+32]
  0001d	48 8b fc	 mov	 rdi, rsp
  00020	b9 42 00 00 00	 mov	 ecx, 66			; 00000042H
  00025	b8 cc cc cc cc	 mov	 eax, -858993460		; ccccccccH
  0002a	f3 ab		 rep stosd
  0002c	48 8b 8c 24 28
	01 00 00	 mov	 rcx, QWORD PTR [rsp+296]
  00034	48 8d 0d 00 00
	00 00		 lea	 rcx, OFFSET FLAT:__A58979FC_xmemory
  0003b	e8 00 00 00 00	 call	 __CheckForDebuggerJustMyCode

; 1287 :         : _Al(_Al_) { // create a new _Container_proxy pointing at _Mycont

  00040	48 8b 85 00 01
	00 00		 mov	 rax, QWORD PTR this$[rbp]
  00047	48 8b 8d 08 01
	00 00		 mov	 rcx, QWORD PTR _Al_$[rbp]
  0004e	48 89 48 08	 mov	 QWORD PTR [rax+8], rcx

; 1288 :         _Ptr = _Unfancy(_Al_.allocate(1));

  00052	ba 01 00 00 00	 mov	 edx, 1
  00057	48 8b 8d 08 01
	00 00		 mov	 rcx, QWORD PTR _Al_$[rbp]
  0005e	e8 00 00 00 00	 call	 ?allocate@?$allocator@U_Container_proxy@std@@@std@@QEAAPEAU_Container_proxy@2@_K@Z ; std::allocator<std::_Container_proxy>::allocate
  00063	48 8b c8	 mov	 rcx, rax
  00066	e8 00 00 00 00	 call	 ??$_Unfancy@U_Container_proxy@std@@@std@@YAPEAU_Container_proxy@0@PEAU10@@Z ; std::_Unfancy<std::_Container_proxy>
  0006b	48 8b 8d 00 01
	00 00		 mov	 rcx, QWORD PTR this$[rbp]
  00072	48 89 01	 mov	 QWORD PTR [rcx], rax

; 1289 :         _Construct_in_place(*_Ptr, _STD addressof(_Mycont));

  00075	48 8b 8d 10 01
	00 00		 mov	 rcx, QWORD PTR _Mycont$[rbp]
  0007c	e8 00 00 00 00	 call	 ??$addressof@U_Container_base12@std@@@std@@YAPEAU_Container_base12@0@AEAU10@@Z ; std::addressof<std::_Container_base12>
  00081	48 89 85 c8 00
	00 00		 mov	 QWORD PTR $T1[rbp], rax
  00088	48 8d 95 c8 00
	00 00		 lea	 rdx, QWORD PTR $T1[rbp]
  0008f	48 8b 85 00 01
	00 00		 mov	 rax, QWORD PTR this$[rbp]
  00096	48 8b 08	 mov	 rcx, QWORD PTR [rax]
  00099	e8 00 00 00 00	 call	 ??$_Construct_in_place@U_Container_proxy@std@@PEAU_Container_base12@2@@std@@YAXAEAU_Container_proxy@0@$$QEAPEAU_Container_base12@0@@Z ; std::_Construct_in_place<std::_Container_proxy,std::_Container_base12 *>

; 1290 :         _Mycont._Myproxy = _Ptr;

  0009e	48 8b 85 10 01
	00 00		 mov	 rax, QWORD PTR _Mycont$[rbp]
  000a5	48 8b 8d 00 01
	00 00		 mov	 rcx, QWORD PTR this$[rbp]
  000ac	48 8b 09	 mov	 rcx, QWORD PTR [rcx]
  000af	48 89 08	 mov	 QWORD PTR [rax], rcx

; 1291 :     }

  000b2	48 8b 85 00 01
	00 00		 mov	 rax, QWORD PTR this$[rbp]
  000b9	48 8d a5 e8 00
	00 00		 lea	 rsp, QWORD PTR [rbp+232]
  000c0	5f		 pop	 rdi
  000c1	5d		 pop	 rbp
  000c2	c3		 ret	 0
??0?$_Container_proxy_ptr12@V?$allocator@U_Container_proxy@std@@@std@@@std@@QEAA@AEAV?$allocator@U_Container_proxy@std@@@1@AEAU_Container_base12@1@@Z ENDP ; std::_Container_proxy_ptr12<std::allocator<std::_Container_proxy> >::_Container_proxy_ptr12<std::allocator<std::_Container_proxy> >
_TEXT	ENDS
; Function compile flags: /Odtp /RTCsu /ZI
; File C:\Program Files (x86)\Microsoft Visual Studio\2019\Community\VC\Tools\MSVC\14.27.29110\include\xmemory
;	COMDAT ??$_Delete_plain_internal@V?$allocator@U_Container_proxy@std@@@std@@@std@@YAXAEAV?$allocator@U_Container_proxy@std@@@0@QEAU_Container_proxy@0@@Z
_TEXT	SEGMENT
_Al$ = 224
_Ptr$ = 232
??$_Delete_plain_internal@V?$allocator@U_Container_proxy@std@@@std@@@std@@YAXAEAV?$allocator@U_Container_proxy@std@@@0@QEAU_Container_proxy@0@@Z PROC ; std::_Delete_plain_internal<std::allocator<std::_Container_proxy> >, COMDAT

; 1026 : void _Delete_plain_internal(_Alloc& _Al, typename _Alloc::value_type* const _Ptr) noexcept {

$LN3:
  00000	48 89 54 24 10	 mov	 QWORD PTR [rsp+16], rdx
  00005	48 89 4c 24 08	 mov	 QWORD PTR [rsp+8], rcx
  0000a	55		 push	 rbp
  0000b	57		 push	 rdi
  0000c	48 81 ec e8 00
	00 00		 sub	 rsp, 232		; 000000e8H
  00013	48 8d 6c 24 20	 lea	 rbp, QWORD PTR [rsp+32]
  00018	48 8b fc	 mov	 rdi, rsp
  0001b	b9 3a 00 00 00	 mov	 ecx, 58			; 0000003aH
  00020	b8 cc cc cc cc	 mov	 eax, -858993460		; ccccccccH
  00025	f3 ab		 rep stosd
  00027	48 8b 8c 24 08
	01 00 00	 mov	 rcx, QWORD PTR [rsp+264]
  0002f	48 8d 0d 00 00
	00 00		 lea	 rcx, OFFSET FLAT:__A58979FC_xmemory
  00036	e8 00 00 00 00	 call	 __CheckForDebuggerJustMyCode

; 1027 :     // destroy *_Ptr in place, then deallocate _Ptr using _Al; used for internal container types the user didn't name
; 1028 :     using _Ty = typename _Alloc::value_type;
; 1029 :     _Ptr->~_Ty();
; 1030 :     _Deallocate_plain(_Al, _Ptr);

  0003b	48 8b 95 e8 00
	00 00		 mov	 rdx, QWORD PTR _Ptr$[rbp]
  00042	48 8b 8d e0 00
	00 00		 mov	 rcx, QWORD PTR _Al$[rbp]
  00049	e8 00 00 00 00	 call	 ??$_Deallocate_plain@V?$allocator@U_Container_proxy@std@@@std@@@std@@YAXAEAV?$allocator@U_Container_proxy@std@@@0@QEAU_Container_proxy@0@@Z ; std::_Deallocate_plain<std::allocator<std::_Container_proxy> >
  0004e	90		 npad	 1

; 1031 : }

  0004f	48 8d a5 c8 00
	00 00		 lea	 rsp, QWORD PTR [rbp+200]
  00056	5f		 pop	 rdi
  00057	5d		 pop	 rbp
  00058	c3		 ret	 0
??$_Delete_plain_internal@V?$allocator@U_Container_proxy@std@@@std@@@std@@YAXAEAV?$allocator@U_Container_proxy@std@@@0@QEAU_Container_proxy@0@@Z ENDP ; std::_Delete_plain_internal<std::allocator<std::_Container_proxy> >
_TEXT	ENDS
; Function compile flags: /Odtp /RTCsu /ZI
; File C:\Program Files (x86)\Microsoft Visual Studio\2019\Community\VC\Tools\MSVC\14.27.29110\include\xmemory
;	COMDAT ?allocate@?$allocator@U_Container_proxy@std@@@std@@QEAAPEAU_Container_proxy@2@_K@Z
_TEXT	SEGMENT
this$ = 224
_Count$ = 232
?allocate@?$allocator@U_Container_proxy@std@@@std@@QEAAPEAU_Container_proxy@2@_K@Z PROC ; std::allocator<std::_Container_proxy>::allocate, COMDAT

; 806  :     _NODISCARD __declspec(allocator) _Ty* allocate(_CRT_GUARDOVERFLOW const size_t _Count) {

$LN3:
  00000	48 89 54 24 10	 mov	 QWORD PTR [rsp+16], rdx
  00005	48 89 4c 24 08	 mov	 QWORD PTR [rsp+8], rcx
  0000a	55		 push	 rbp
  0000b	57		 push	 rdi
  0000c	48 81 ec e8 00
	00 00		 sub	 rsp, 232		; 000000e8H
  00013	48 8d 6c 24 20	 lea	 rbp, QWORD PTR [rsp+32]
  00018	48 8b fc	 mov	 rdi, rsp
  0001b	b9 3a 00 00 00	 mov	 ecx, 58			; 0000003aH
  00020	b8 cc cc cc cc	 mov	 eax, -858993460		; ccccccccH
  00025	f3 ab		 rep stosd
  00027	48 8b 8c 24 08
	01 00 00	 mov	 rcx, QWORD PTR [rsp+264]
  0002f	48 8d 0d 00 00
	00 00		 lea	 rcx, OFFSET FLAT:__A58979FC_xmemory
  00036	e8 00 00 00 00	 call	 __CheckForDebuggerJustMyCode

; 807  :         return static_cast<_Ty*>(_Allocate<_New_alignof<_Ty>>(_Get_size_of_n<sizeof(_Ty)>(_Count)));

  0003b	48 8b 8d e8 00
	00 00		 mov	 rcx, QWORD PTR _Count$[rbp]
  00042	e8 00 00 00 00	 call	 ??$_Get_size_of_n@$0BA@@std@@YA_K_K@Z ; std::_Get_size_of_n<16>
  00047	48 8b c8	 mov	 rcx, rax
  0004a	e8 00 00 00 00	 call	 ??$_Allocate@$0BA@U_Default_allocate_traits@std@@$0A@@std@@YAPEAX_K@Z ; std::_Allocate<16,std::_Default_allocate_traits,0>

; 808  :     }

  0004f	48 8d a5 c8 00
	00 00		 lea	 rsp, QWORD PTR [rbp+200]
  00056	5f		 pop	 rdi
  00057	5d		 pop	 rbp
  00058	c3		 ret	 0
?allocate@?$allocator@U_Container_proxy@std@@@std@@QEAAPEAU_Container_proxy@2@_K@Z ENDP ; std::allocator<std::_Container_proxy>::allocate
_TEXT	ENDS
; Function compile flags: /Odtp /RTCsu /ZI
; File C:\Program Files (x86)\Microsoft Visual Studio\2019\Community\VC\Tools\MSVC\14.27.29110\include\utility
;	COMDAT ??$min@_K@std@@YAAEB_KAEB_K0@Z
_TEXT	SEGMENT
$T1 = 200
tv65 = 216
_Left$ = 256
_Right$ = 264
??$min@_K@std@@YAAEB_KAEB_K0@Z PROC			; std::min<unsigned __int64>, COMDAT

; 67   :     const _Ty& _Left, const _Ty& _Right) noexcept(noexcept(_Right < _Left)) /* strengthened */ {

$LN5:
  00000	48 89 54 24 10	 mov	 QWORD PTR [rsp+16], rdx
  00005	48 89 4c 24 08	 mov	 QWORD PTR [rsp+8], rcx
  0000a	55		 push	 rbp
  0000b	57		 push	 rdi
  0000c	48 81 ec 08 01
	00 00		 sub	 rsp, 264		; 00000108H
  00013	48 8d 6c 24 20	 lea	 rbp, QWORD PTR [rsp+32]
  00018	48 8b fc	 mov	 rdi, rsp
  0001b	b9 42 00 00 00	 mov	 ecx, 66			; 00000042H
  00020	b8 cc cc cc cc	 mov	 eax, -858993460		; ccccccccH
  00025	f3 ab		 rep stosd
  00027	48 8b 8c 24 28
	01 00 00	 mov	 rcx, QWORD PTR [rsp+296]
  0002f	48 8d 0d 00 00
	00 00		 lea	 rcx, OFFSET FLAT:__CF1C1A3F_utility
  00036	e8 00 00 00 00	 call	 __CheckForDebuggerJustMyCode

; 68   :     // return smaller of _Left and _Right
; 69   :     return _Right < _Left ? _Right : _Left;

  0003b	48 8b 85 08 01
	00 00		 mov	 rax, QWORD PTR _Right$[rbp]
  00042	48 8b 8d 00 01
	00 00		 mov	 rcx, QWORD PTR _Left$[rbp]
  00049	48 8b 09	 mov	 rcx, QWORD PTR [rcx]
  0004c	48 39 08	 cmp	 QWORD PTR [rax], rcx
  0004f	73 10		 jae	 SHORT $LN3@min
  00051	48 8b 85 08 01
	00 00		 mov	 rax, QWORD PTR _Right$[rbp]
  00058	48 89 85 d8 00
	00 00		 mov	 QWORD PTR tv65[rbp], rax
  0005f	eb 0e		 jmp	 SHORT $LN4@min
$LN3@min:
  00061	48 8b 85 00 01
	00 00		 mov	 rax, QWORD PTR _Left$[rbp]
  00068	48 89 85 d8 00
	00 00		 mov	 QWORD PTR tv65[rbp], rax
$LN4@min:
  0006f	48 8b 85 d8 00
	00 00		 mov	 rax, QWORD PTR tv65[rbp]
  00076	48 89 85 c8 00
	00 00		 mov	 QWORD PTR $T1[rbp], rax
  0007d	48 8b 85 c8 00
	00 00		 mov	 rax, QWORD PTR $T1[rbp]

; 70   : }

  00084	48 8d a5 e8 00
	00 00		 lea	 rsp, QWORD PTR [rbp+232]
  0008b	5f		 pop	 rdi
  0008c	5d		 pop	 rbp
  0008d	c3		 ret	 0
??$min@_K@std@@YAAEB_KAEB_K0@Z ENDP			; std::min<unsigned __int64>
_TEXT	ENDS
; Function compile flags: /Odtp /RTCsu /ZI
; File C:\Program Files (x86)\Microsoft Visual Studio\2019\Community\VC\Tools\MSVC\14.27.29110\include\ostream
;	COMDAT ??Bsentry@?$basic_ostream@DU?$char_traits@D@std@@@std@@QEBA_NXZ
_TEXT	SEGMENT
this$ = 224
??Bsentry@?$basic_ostream@DU?$char_traits@D@std@@@std@@QEBA_NXZ PROC ; std::basic_ostream<char,std::char_traits<char> >::sentry::operator bool, COMDAT

; 125  :         explicit __CLR_OR_THIS_CALL operator bool() const {

$LN3:
  00000	48 89 4c 24 08	 mov	 QWORD PTR [rsp+8], rcx
  00005	55		 push	 rbp
  00006	57		 push	 rdi
  00007	48 81 ec e8 00
	00 00		 sub	 rsp, 232		; 000000e8H
  0000e	48 8d 6c 24 20	 lea	 rbp, QWORD PTR [rsp+32]
  00013	48 8b fc	 mov	 rdi, rsp
  00016	b9 3a 00 00 00	 mov	 ecx, 58			; 0000003aH
  0001b	b8 cc cc cc cc	 mov	 eax, -858993460		; ccccccccH
  00020	f3 ab		 rep stosd
  00022	48 8b 8c 24 08
	01 00 00	 mov	 rcx, QWORD PTR [rsp+264]
  0002a	48 8d 0d 00 00
	00 00		 lea	 rcx, OFFSET FLAT:__1D745195_ostream
  00031	e8 00 00 00 00	 call	 __CheckForDebuggerJustMyCode

; 126  :             return _Ok;

  00036	48 8b 85 e0 00
	00 00		 mov	 rax, QWORD PTR this$[rbp]
  0003d	0f b6 40 08	 movzx	 eax, BYTE PTR [rax+8]

; 127  :         }

  00041	48 8d a5 c8 00
	00 00		 lea	 rsp, QWORD PTR [rbp+200]
  00048	5f		 pop	 rdi
  00049	5d		 pop	 rbp
  0004a	c3		 ret	 0
??Bsentry@?$basic_ostream@DU?$char_traits@D@std@@@std@@QEBA_NXZ ENDP ; std::basic_ostream<char,std::char_traits<char> >::sentry::operator bool
_TEXT	ENDS
; Function compile flags: /Odtp /RTCsu /ZI
; File C:\Program Files (x86)\Microsoft Visual Studio\2019\Community\VC\Tools\MSVC\14.27.29110\include\ostream
;	COMDAT ??1sentry@?$basic_ostream@DU?$char_traits@D@std@@@std@@QEAA@XZ
_TEXT	SEGMENT
_Zero_uncaught_exceptions$ = 4
tv72 = 212
this$ = 256
??1sentry@?$basic_ostream@DU?$char_traits@D@std@@@std@@QEAA@XZ PROC ; std::basic_ostream<char,std::char_traits<char> >::sentry::~sentry, COMDAT

; 110  :         __CLR_OR_THIS_CALL ~sentry() noexcept {

$LN6:
  00000	48 89 4c 24 08	 mov	 QWORD PTR [rsp+8], rcx
  00005	55		 push	 rbp
  00006	57		 push	 rdi
  00007	48 81 ec 08 01
	00 00		 sub	 rsp, 264		; 00000108H
  0000e	48 8d 6c 24 20	 lea	 rbp, QWORD PTR [rsp+32]
  00013	48 8b fc	 mov	 rdi, rsp
  00016	b9 42 00 00 00	 mov	 ecx, 66			; 00000042H
  0001b	b8 cc cc cc cc	 mov	 eax, -858993460		; ccccccccH
  00020	f3 ab		 rep stosd
  00022	48 8b 8c 24 28
	01 00 00	 mov	 rcx, QWORD PTR [rsp+296]
  0002a	48 8d 0d 00 00
	00 00		 lea	 rcx, OFFSET FLAT:__1D745195_ostream
  00031	e8 00 00 00 00	 call	 __CheckForDebuggerJustMyCode

; 111  : #if !_HAS_EXCEPTIONS
; 112  :             const bool _Zero_uncaught_exceptions = true;
; 113  : #elif _HAS_DEPRECATED_UNCAUGHT_EXCEPTION
; 114  :             const bool _Zero_uncaught_exceptions = !_STD uncaught_exception(); // TRANSITION, ArchivedOS-12000909

  00036	e8 00 00 00 00	 call	 ?uncaught_exception@std@@YA_NXZ ; std::uncaught_exception
  0003b	0f b6 c0	 movzx	 eax, al
  0003e	85 c0		 test	 eax, eax
  00040	75 09		 jne	 SHORT $LN4@sentry
  00042	c6 85 d4 00 00
	00 01		 mov	 BYTE PTR tv72[rbp], 1
  00049	eb 07		 jmp	 SHORT $LN5@sentry
$LN4@sentry:
  0004b	c6 85 d4 00 00
	00 00		 mov	 BYTE PTR tv72[rbp], 0
$LN5@sentry:
  00052	0f b6 85 d4 00
	00 00		 movzx	 eax, BYTE PTR tv72[rbp]
  00059	88 45 04	 mov	 BYTE PTR _Zero_uncaught_exceptions$[rbp], al

; 115  : #else // ^^^ _HAS_DEPRECATED_UNCAUGHT_EXCEPTION / !_HAS_DEPRECATED_UNCAUGHT_EXCEPTION vvv
; 116  :             const bool _Zero_uncaught_exceptions = _STD uncaught_exceptions() == 0;
; 117  : #endif // !_HAS_DEPRECATED_UNCAUGHT_EXCEPTION
; 118  : 
; 119  :             if (_Zero_uncaught_exceptions) {

  0005c	0f b6 45 04	 movzx	 eax, BYTE PTR _Zero_uncaught_exceptions$[rbp]
  00060	85 c0		 test	 eax, eax
  00062	74 10		 je	 SHORT $LN2@sentry

; 120  :                 this->_Myostr._Osfx();

  00064	48 8b 85 00 01
	00 00		 mov	 rax, QWORD PTR this$[rbp]
  0006b	48 8b 08	 mov	 rcx, QWORD PTR [rax]
  0006e	ff 15 00 00 00
	00		 call	 QWORD PTR __imp_?_Osfx@?$basic_ostream@DU?$char_traits@D@std@@@std@@QEAAXXZ
$LN2@sentry:

; 121  :             }
; 122  :         }

  00074	48 8b 8d 00 01
	00 00		 mov	 rcx, QWORD PTR this$[rbp]
  0007b	e8 00 00 00 00	 call	 ??1_Sentry_base@?$basic_ostream@DU?$char_traits@D@std@@@std@@QEAA@XZ ; std::basic_ostream<char,std::char_traits<char> >::_Sentry_base::~_Sentry_base
  00080	90		 npad	 1
  00081	48 8d a5 e8 00
	00 00		 lea	 rsp, QWORD PTR [rbp+232]
  00088	5f		 pop	 rdi
  00089	5d		 pop	 rbp
  0008a	c3		 ret	 0
??1sentry@?$basic_ostream@DU?$char_traits@D@std@@@std@@QEAA@XZ ENDP ; std::basic_ostream<char,std::char_traits<char> >::sentry::~sentry
_TEXT	ENDS
; Function compile flags: /Odtp /RTCsu /ZI
; File C:\Program Files (x86)\Microsoft Visual Studio\2019\Community\VC\Tools\MSVC\14.27.29110\include\ostream
;	COMDAT ??0sentry@?$basic_ostream@DU?$char_traits@D@std@@@std@@QEAA@AEAV12@@Z
_TEXT	SEGMENT
_Tied$ = 8
this$ = 256
_Ostr$ = 264
??0sentry@?$basic_ostream@DU?$char_traits@D@std@@@std@@QEAA@AEAV12@@Z PROC ; std::basic_ostream<char,std::char_traits<char> >::sentry::sentry, COMDAT

; 92   :         explicit __CLR_OR_THIS_CALL sentry(basic_ostream& _Ostr) : _Sentry_base(_Ostr) {

$LN7:
  00000	48 89 54 24 10	 mov	 QWORD PTR [rsp+16], rdx
  00005	48 89 4c 24 08	 mov	 QWORD PTR [rsp+8], rcx
  0000a	55		 push	 rbp
  0000b	57		 push	 rdi
  0000c	48 81 ec 08 01
	00 00		 sub	 rsp, 264		; 00000108H
  00013	48 8d 6c 24 20	 lea	 rbp, QWORD PTR [rsp+32]
  00018	48 8b fc	 mov	 rdi, rsp
  0001b	b9 42 00 00 00	 mov	 ecx, 66			; 00000042H
  00020	b8 cc cc cc cc	 mov	 eax, -858993460		; ccccccccH
  00025	f3 ab		 rep stosd
  00027	48 8b 8c 24 28
	01 00 00	 mov	 rcx, QWORD PTR [rsp+296]
  0002f	48 8d 0d 00 00
	00 00		 lea	 rcx, OFFSET FLAT:__1D745195_ostream
  00036	e8 00 00 00 00	 call	 __CheckForDebuggerJustMyCode
  0003b	48 8b 95 08 01
	00 00		 mov	 rdx, QWORD PTR _Ostr$[rbp]
  00042	48 8b 8d 00 01
	00 00		 mov	 rcx, QWORD PTR this$[rbp]
  00049	e8 00 00 00 00	 call	 ??0_Sentry_base@?$basic_ostream@DU?$char_traits@D@std@@@std@@QEAA@AEAV12@@Z ; std::basic_ostream<char,std::char_traits<char> >::_Sentry_base::_Sentry_base
  0004e	90		 npad	 1

; 93   :             if (!_Ostr.good()) {

  0004f	48 8b 85 08 01
	00 00		 mov	 rax, QWORD PTR _Ostr$[rbp]
  00056	48 8b 00	 mov	 rax, QWORD PTR [rax]
  00059	48 63 40 04	 movsxd	 rax, DWORD PTR [rax+4]
  0005d	48 8b 8d 08 01
	00 00		 mov	 rcx, QWORD PTR _Ostr$[rbp]
  00064	48 03 c8	 add	 rcx, rax
  00067	48 8b c1	 mov	 rax, rcx
  0006a	48 8b c8	 mov	 rcx, rax
  0006d	ff 15 00 00 00
	00		 call	 QWORD PTR __imp_?good@ios_base@std@@QEBA_NXZ
  00073	0f b6 c0	 movzx	 eax, al
  00076	85 c0		 test	 eax, eax
  00078	75 10		 jne	 SHORT $LN2@sentry

; 94   :                 _Ok = false;

  0007a	48 8b 85 00 01
	00 00		 mov	 rax, QWORD PTR this$[rbp]
  00081	c6 40 08 00	 mov	 BYTE PTR [rax+8], 0

; 95   :                 return;

  00085	e9 81 00 00 00	 jmp	 $LN1@sentry
$LN2@sentry:

; 96   :             }
; 97   : 
; 98   :             const auto _Tied = _Ostr.tie();

  0008a	48 8b 85 08 01
	00 00		 mov	 rax, QWORD PTR _Ostr$[rbp]
  00091	48 8b 00	 mov	 rax, QWORD PTR [rax]
  00094	48 63 40 04	 movsxd	 rax, DWORD PTR [rax+4]
  00098	48 8b 8d 08 01
	00 00		 mov	 rcx, QWORD PTR _Ostr$[rbp]
  0009f	48 03 c8	 add	 rcx, rax
  000a2	48 8b c1	 mov	 rax, rcx
  000a5	48 8b c8	 mov	 rcx, rax
  000a8	ff 15 00 00 00
	00		 call	 QWORD PTR __imp_?tie@?$basic_ios@DU?$char_traits@D@std@@@std@@QEBAPEAV?$basic_ostream@DU?$char_traits@D@std@@@2@XZ
  000ae	48 89 45 08	 mov	 QWORD PTR _Tied$[rbp], rax

; 99   :             if (!_Tied || _Tied == &_Ostr) {

  000b2	48 83 7d 08 00	 cmp	 QWORD PTR _Tied$[rbp], 0
  000b7	74 0d		 je	 SHORT $LN4@sentry
  000b9	48 8b 85 08 01
	00 00		 mov	 rax, QWORD PTR _Ostr$[rbp]
  000c0	48 39 45 08	 cmp	 QWORD PTR _Tied$[rbp], rax
  000c4	75 0d		 jne	 SHORT $LN3@sentry
$LN4@sentry:

; 100  :                 _Ok = true;

  000c6	48 8b 85 00 01
	00 00		 mov	 rax, QWORD PTR this$[rbp]
  000cd	c6 40 08 01	 mov	 BYTE PTR [rax+8], 1

; 101  :                 return;

  000d1	eb 38		 jmp	 SHORT $LN1@sentry
$LN3@sentry:

; 102  :             }
; 103  : 
; 104  : 
; 105  :             _Tied->flush();

  000d3	48 8b 4d 08	 mov	 rcx, QWORD PTR _Tied$[rbp]
  000d7	ff 15 00 00 00
	00		 call	 QWORD PTR __imp_?flush@?$basic_ostream@DU?$char_traits@D@std@@@std@@QEAAAEAV12@XZ

; 106  :             _Ok = _Ostr.good(); // store test only after flushing tie

  000dd	48 8b 85 08 01
	00 00		 mov	 rax, QWORD PTR _Ostr$[rbp]
  000e4	48 8b 00	 mov	 rax, QWORD PTR [rax]
  000e7	48 63 40 04	 movsxd	 rax, DWORD PTR [rax+4]
  000eb	48 8b 8d 08 01
	00 00		 mov	 rcx, QWORD PTR _Ostr$[rbp]
  000f2	48 03 c8	 add	 rcx, rax
  000f5	48 8b c1	 mov	 rax, rcx
  000f8	48 8b c8	 mov	 rcx, rax
  000fb	ff 15 00 00 00
	00		 call	 QWORD PTR __imp_?good@ios_base@std@@QEBA_NXZ
  00101	48 8b 8d 00 01
	00 00		 mov	 rcx, QWORD PTR this$[rbp]
  00108	88 41 08	 mov	 BYTE PTR [rcx+8], al
$LN1@sentry:

; 107  :         }

  0010b	48 8b 85 00 01
	00 00		 mov	 rax, QWORD PTR this$[rbp]
  00112	48 8d a5 e8 00
	00 00		 lea	 rsp, QWORD PTR [rbp+232]
  00119	5f		 pop	 rdi
  0011a	5d		 pop	 rbp
  0011b	c3		 ret	 0
??0sentry@?$basic_ostream@DU?$char_traits@D@std@@@std@@QEAA@AEAV12@@Z ENDP ; std::basic_ostream<char,std::char_traits<char> >::sentry::sentry
_TEXT	ENDS
;	COMDAT text$x
text$x	SEGMENT
_Tied$ = 8
this$ = 256
_Ostr$ = 264
?dtor$0@?0???0sentry@?$basic_ostream@DU?$char_traits@D@std@@@std@@QEAA@AEAV12@@Z@4HA PROC ; `std::basic_ostream<char,std::char_traits<char> >::sentry::sentry'::`1'::dtor$0
  00000	48 89 4c 24 08	 mov	 QWORD PTR [rsp+8], rcx
  00005	48 89 54 24 10	 mov	 QWORD PTR [rsp+16], rdx
  0000a	55		 push	 rbp
  0000b	57		 push	 rdi
  0000c	48 83 ec 28	 sub	 rsp, 40			; 00000028H
  00010	48 8d 6a 20	 lea	 rbp, QWORD PTR [rdx+32]
  00014	48 8b 8d 00 01
	00 00		 mov	 rcx, QWORD PTR this$[rbp]
  0001b	e8 00 00 00 00	 call	 ??1_Sentry_base@?$basic_ostream@DU?$char_traits@D@std@@@std@@QEAA@XZ ; std::basic_ostream<char,std::char_traits<char> >::_Sentry_base::~_Sentry_base
  00020	48 83 c4 28	 add	 rsp, 40			; 00000028H
  00024	5f		 pop	 rdi
  00025	5d		 pop	 rbp
  00026	c3		 ret	 0
?dtor$0@?0???0sentry@?$basic_ostream@DU?$char_traits@D@std@@@std@@QEAA@AEAV12@@Z@4HA ENDP ; `std::basic_ostream<char,std::char_traits<char> >::sentry::sentry'::`1'::dtor$0
text$x	ENDS
; Function compile flags: /Odtp /RTCsu /ZI
;	COMDAT text$x
text$x	SEGMENT
_Tied$ = 8
this$ = 256
_Ostr$ = 264
?dtor$0@?0???0sentry@?$basic_ostream@DU?$char_traits@D@std@@@std@@QEAA@AEAV12@@Z@4HA PROC ; `std::basic_ostream<char,std::char_traits<char> >::sentry::sentry'::`1'::dtor$0
  00000	48 89 4c 24 08	 mov	 QWORD PTR [rsp+8], rcx
  00005	48 89 54 24 10	 mov	 QWORD PTR [rsp+16], rdx
  0000a	55		 push	 rbp
  0000b	57		 push	 rdi
  0000c	48 83 ec 28	 sub	 rsp, 40			; 00000028H
  00010	48 8d 6a 20	 lea	 rbp, QWORD PTR [rdx+32]
  00014	48 8b 8d 00 01
	00 00		 mov	 rcx, QWORD PTR this$[rbp]
  0001b	e8 00 00 00 00	 call	 ??1_Sentry_base@?$basic_ostream@DU?$char_traits@D@std@@@std@@QEAA@XZ ; std::basic_ostream<char,std::char_traits<char> >::_Sentry_base::~_Sentry_base
  00020	48 83 c4 28	 add	 rsp, 40			; 00000028H
  00024	5f		 pop	 rdi
  00025	5d		 pop	 rbp
  00026	c3		 ret	 0
?dtor$0@?0???0sentry@?$basic_ostream@DU?$char_traits@D@std@@@std@@QEAA@AEAV12@@Z@4HA ENDP ; `std::basic_ostream<char,std::char_traits<char> >::sentry::sentry'::`1'::dtor$0
text$x	ENDS
; Function compile flags: /Odtp /RTCsu /ZI
; File C:\Program Files (x86)\Microsoft Visual Studio\2019\Community\VC\Tools\MSVC\14.27.29110\include\ostream
;	COMDAT ??1_Sentry_base@?$basic_ostream@DU?$char_traits@D@std@@@std@@QEAA@XZ
_TEXT	SEGMENT
_Rdbuf$ = 8
tv72 = 216
this$ = 256
??1_Sentry_base@?$basic_ostream@DU?$char_traits@D@std@@@std@@QEAA@XZ PROC ; std::basic_ostream<char,std::char_traits<char> >::_Sentry_base::~_Sentry_base, COMDAT

; 78   :         __CLR_OR_THIS_CALL ~_Sentry_base() noexcept { // destroy after unlocking

$LN4:
  00000	48 89 4c 24 08	 mov	 QWORD PTR [rsp+8], rcx
  00005	55		 push	 rbp
  00006	57		 push	 rdi
  00007	48 81 ec 08 01
	00 00		 sub	 rsp, 264		; 00000108H
  0000e	48 8d 6c 24 20	 lea	 rbp, QWORD PTR [rsp+32]
  00013	48 8b fc	 mov	 rdi, rsp
  00016	b9 42 00 00 00	 mov	 ecx, 66			; 00000042H
  0001b	b8 cc cc cc cc	 mov	 eax, -858993460		; ccccccccH
  00020	f3 ab		 rep stosd
  00022	48 8b 8c 24 28
	01 00 00	 mov	 rcx, QWORD PTR [rsp+296]
  0002a	48 8d 0d 00 00
	00 00		 lea	 rcx, OFFSET FLAT:__1D745195_ostream
  00031	e8 00 00 00 00	 call	 __CheckForDebuggerJustMyCode

; 79   :             const auto _Rdbuf = _Myostr.rdbuf();

  00036	48 8b 85 00 01
	00 00		 mov	 rax, QWORD PTR this$[rbp]
  0003d	48 8b 00	 mov	 rax, QWORD PTR [rax]
  00040	48 89 85 d8 00
	00 00		 mov	 QWORD PTR tv72[rbp], rax
  00047	48 8b 85 d8 00
	00 00		 mov	 rax, QWORD PTR tv72[rbp]
  0004e	48 8b 00	 mov	 rax, QWORD PTR [rax]
  00051	48 63 40 04	 movsxd	 rax, DWORD PTR [rax+4]
  00055	48 8b 8d d8 00
	00 00		 mov	 rcx, QWORD PTR tv72[rbp]
  0005c	48 03 c8	 add	 rcx, rax
  0005f	48 8b c1	 mov	 rax, rcx
  00062	48 8b c8	 mov	 rcx, rax
  00065	ff 15 00 00 00
	00		 call	 QWORD PTR __imp_?rdbuf@?$basic_ios@DU?$char_traits@D@std@@@std@@QEBAPEAV?$basic_streambuf@DU?$char_traits@D@std@@@2@XZ
  0006b	48 89 45 08	 mov	 QWORD PTR _Rdbuf$[rbp], rax

; 80   :             if (_Rdbuf) {

  0006f	48 83 7d 08 00	 cmp	 QWORD PTR _Rdbuf$[rbp], 0
  00074	74 0f		 je	 SHORT $LN2@Sentry_bas

; 81   :                 _Rdbuf->_Unlock();

  00076	48 8b 45 08	 mov	 rax, QWORD PTR _Rdbuf$[rbp]
  0007a	48 8b 00	 mov	 rax, QWORD PTR [rax]
  0007d	48 8b 4d 08	 mov	 rcx, QWORD PTR _Rdbuf$[rbp]
  00081	ff 50 10	 call	 QWORD PTR [rax+16]
  00084	90		 npad	 1
$LN2@Sentry_bas:

; 82   :             }
; 83   :         }

  00085	48 8d a5 e8 00
	00 00		 lea	 rsp, QWORD PTR [rbp+232]
  0008c	5f		 pop	 rdi
  0008d	5d		 pop	 rbp
  0008e	c3		 ret	 0
??1_Sentry_base@?$basic_ostream@DU?$char_traits@D@std@@@std@@QEAA@XZ ENDP ; std::basic_ostream<char,std::char_traits<char> >::_Sentry_base::~_Sentry_base
_TEXT	ENDS
; Function compile flags: /Odtp /RTCsu /ZI
; File C:\Program Files (x86)\Microsoft Visual Studio\2019\Community\VC\Tools\MSVC\14.27.29110\include\ostream
;	COMDAT ??0_Sentry_base@?$basic_ostream@DU?$char_traits@D@std@@@std@@QEAA@AEAV12@@Z
_TEXT	SEGMENT
_Rdbuf$ = 8
tv73 = 216
this$ = 256
_Ostr$ = 264
??0_Sentry_base@?$basic_ostream@DU?$char_traits@D@std@@@std@@QEAA@AEAV12@@Z PROC ; std::basic_ostream<char,std::char_traits<char> >::_Sentry_base::_Sentry_base, COMDAT

; 71   :         __CLR_OR_THIS_CALL _Sentry_base(basic_ostream& _Ostr) : _Myostr(_Ostr) { // lock the stream buffer, if there

$LN4:
  00000	48 89 54 24 10	 mov	 QWORD PTR [rsp+16], rdx
  00005	48 89 4c 24 08	 mov	 QWORD PTR [rsp+8], rcx
  0000a	55		 push	 rbp
  0000b	57		 push	 rdi
  0000c	48 81 ec 08 01
	00 00		 sub	 rsp, 264		; 00000108H
  00013	48 8d 6c 24 20	 lea	 rbp, QWORD PTR [rsp+32]
  00018	48 8b fc	 mov	 rdi, rsp
  0001b	b9 42 00 00 00	 mov	 ecx, 66			; 00000042H
  00020	b8 cc cc cc cc	 mov	 eax, -858993460		; ccccccccH
  00025	f3 ab		 rep stosd
  00027	48 8b 8c 24 28
	01 00 00	 mov	 rcx, QWORD PTR [rsp+296]
  0002f	48 8d 0d 00 00
	00 00		 lea	 rcx, OFFSET FLAT:__1D745195_ostream
  00036	e8 00 00 00 00	 call	 __CheckForDebuggerJustMyCode
  0003b	48 8b 85 00 01
	00 00		 mov	 rax, QWORD PTR this$[rbp]
  00042	48 8b 8d 08 01
	00 00		 mov	 rcx, QWORD PTR _Ostr$[rbp]
  00049	48 89 08	 mov	 QWORD PTR [rax], rcx

; 72   :             const auto _Rdbuf = _Myostr.rdbuf();

  0004c	48 8b 85 00 01
	00 00		 mov	 rax, QWORD PTR this$[rbp]
  00053	48 8b 00	 mov	 rax, QWORD PTR [rax]
  00056	48 89 85 d8 00
	00 00		 mov	 QWORD PTR tv73[rbp], rax
  0005d	48 8b 85 d8 00
	00 00		 mov	 rax, QWORD PTR tv73[rbp]
  00064	48 8b 00	 mov	 rax, QWORD PTR [rax]
  00067	48 63 40 04	 movsxd	 rax, DWORD PTR [rax+4]
  0006b	48 8b 8d d8 00
	00 00		 mov	 rcx, QWORD PTR tv73[rbp]
  00072	48 03 c8	 add	 rcx, rax
  00075	48 8b c1	 mov	 rax, rcx
  00078	48 8b c8	 mov	 rcx, rax
  0007b	ff 15 00 00 00
	00		 call	 QWORD PTR __imp_?rdbuf@?$basic_ios@DU?$char_traits@D@std@@@std@@QEBAPEAV?$basic_streambuf@DU?$char_traits@D@std@@@2@XZ
  00081	48 89 45 08	 mov	 QWORD PTR _Rdbuf$[rbp], rax

; 73   :             if (_Rdbuf) {

  00085	48 83 7d 08 00	 cmp	 QWORD PTR _Rdbuf$[rbp], 0
  0008a	74 0e		 je	 SHORT $LN2@Sentry_bas

; 74   :                 _Rdbuf->_Lock();

  0008c	48 8b 45 08	 mov	 rax, QWORD PTR _Rdbuf$[rbp]
  00090	48 8b 00	 mov	 rax, QWORD PTR [rax]
  00093	48 8b 4d 08	 mov	 rcx, QWORD PTR _Rdbuf$[rbp]
  00097	ff 50 08	 call	 QWORD PTR [rax+8]
$LN2@Sentry_bas:

; 75   :             }
; 76   :         }

  0009a	48 8b 85 00 01
	00 00		 mov	 rax, QWORD PTR this$[rbp]
  000a1	48 8d a5 e8 00
	00 00		 lea	 rsp, QWORD PTR [rbp+232]
  000a8	5f		 pop	 rdi
  000a9	5d		 pop	 rbp
  000aa	c3		 ret	 0
??0_Sentry_base@?$basic_ostream@DU?$char_traits@D@std@@@std@@QEAA@AEAV12@@Z ENDP ; std::basic_ostream<char,std::char_traits<char> >::_Sentry_base::_Sentry_base
_TEXT	ENDS
; Function compile flags: /Odtp /RTCsu /ZI
; File C:\Program Files (x86)\Microsoft Visual Studio\2019\Community\VC\Tools\MSVC\14.27.29110\include\ostream
;	COMDAT ??$endl@DU?$char_traits@D@std@@@std@@YAAEAV?$basic_ostream@DU?$char_traits@D@std@@@0@AEAV10@@Z
_TEXT	SEGMENT
_Ostr$ = 224
??$endl@DU?$char_traits@D@std@@@std@@YAAEAV?$basic_ostream@DU?$char_traits@D@std@@@0@AEAV10@@Z PROC ; std::endl<char,std::char_traits<char> >, COMDAT

; 981  :     basic_ostream<_Elem, _Traits>& _Ostr) { // insert newline and flush stream

$LN3:
  00000	48 89 4c 24 08	 mov	 QWORD PTR [rsp+8], rcx
  00005	55		 push	 rbp
  00006	57		 push	 rdi
  00007	48 81 ec e8 00
	00 00		 sub	 rsp, 232		; 000000e8H
  0000e	48 8d 6c 24 20	 lea	 rbp, QWORD PTR [rsp+32]
  00013	48 8b fc	 mov	 rdi, rsp
  00016	b9 3a 00 00 00	 mov	 ecx, 58			; 0000003aH
  0001b	b8 cc cc cc cc	 mov	 eax, -858993460		; ccccccccH
  00020	f3 ab		 rep stosd
  00022	48 8b 8c 24 08
	01 00 00	 mov	 rcx, QWORD PTR [rsp+264]
  0002a	48 8d 0d 00 00
	00 00		 lea	 rcx, OFFSET FLAT:__1D745195_ostream
  00031	e8 00 00 00 00	 call	 __CheckForDebuggerJustMyCode

; 982  :     _Ostr.put(_Ostr.widen('\n'));

  00036	48 8b 85 e0 00
	00 00		 mov	 rax, QWORD PTR _Ostr$[rbp]
  0003d	48 8b 00	 mov	 rax, QWORD PTR [rax]
  00040	48 63 40 04	 movsxd	 rax, DWORD PTR [rax+4]
  00044	48 8b 8d e0 00
	00 00		 mov	 rcx, QWORD PTR _Ostr$[rbp]
  0004b	48 03 c8	 add	 rcx, rax
  0004e	48 8b c1	 mov	 rax, rcx
  00051	b2 0a		 mov	 dl, 10
  00053	48 8b c8	 mov	 rcx, rax
  00056	ff 15 00 00 00
	00		 call	 QWORD PTR __imp_?widen@?$basic_ios@DU?$char_traits@D@std@@@std@@QEBADD@Z
  0005c	0f b6 d0	 movzx	 edx, al
  0005f	48 8b 8d e0 00
	00 00		 mov	 rcx, QWORD PTR _Ostr$[rbp]
  00066	ff 15 00 00 00
	00		 call	 QWORD PTR __imp_?put@?$basic_ostream@DU?$char_traits@D@std@@@std@@QEAAAEAV12@D@Z

; 983  :     _Ostr.flush();

  0006c	48 8b 8d e0 00
	00 00		 mov	 rcx, QWORD PTR _Ostr$[rbp]
  00073	ff 15 00 00 00
	00		 call	 QWORD PTR __imp_?flush@?$basic_ostream@DU?$char_traits@D@std@@@std@@QEAAAEAV12@XZ

; 984  :     return _Ostr;

  00079	48 8b 85 e0 00
	00 00		 mov	 rax, QWORD PTR _Ostr$[rbp]

; 985  : }

  00080	48 8d a5 c8 00
	00 00		 lea	 rsp, QWORD PTR [rbp+200]
  00087	5f		 pop	 rdi
  00088	5d		 pop	 rbp
  00089	c3		 ret	 0
??$endl@DU?$char_traits@D@std@@@std@@YAAEAV?$basic_ostream@DU?$char_traits@D@std@@@0@AEAV10@@Z ENDP ; std::endl<char,std::char_traits<char> >
_TEXT	ENDS
; Function compile flags: /Odtp /RTCsu /ZI
; File A:\Server\Projects\w3schools Cpp_v2\w3schools_cpp_course\line_printing.cpp
;	COMDAT main
_TEXT	SEGMENT
myNum$ = 4
myNum2$ = 36
myNum3$ = 68
myFloatNum$ = 104
myLetter$ = 132
myText$ = 168
myBoolean$ = 228
myAge$ = 260
x$ = 292
y$ = 324
sum$ = 356
$T4 = 580
__$ArrayPad$ = 600
main	PROC						; COMDAT

; 96   : int main() {

$LN4:
  00000	40 55		 push	 rbp
  00002	57		 push	 rdi
  00003	48 81 ec 88 02
	00 00		 sub	 rsp, 648		; 00000288H
  0000a	48 8d 6c 24 20	 lea	 rbp, QWORD PTR [rsp+32]
  0000f	48 8b fc	 mov	 rdi, rsp
  00012	b9 a2 00 00 00	 mov	 ecx, 162		; 000000a2H
  00017	b8 cc cc cc cc	 mov	 eax, -858993460		; ccccccccH
  0001c	f3 ab		 rep stosd
  0001e	48 8b 05 00 00
	00 00		 mov	 rax, QWORD PTR __security_cookie
  00025	48 33 c5	 xor	 rax, rbp
  00028	48 89 85 58 02
	00 00		 mov	 QWORD PTR __$ArrayPad$[rbp], rax
  0002f	48 8d 0d 00 00
	00 00		 lea	 rcx, OFFSET FLAT:__2DA40AF6_line_printing@cpp
  00036	e8 00 00 00 00	 call	 __CheckForDebuggerJustMyCode

; 97   : 	cout << "Hello world";

  0003b	48 8d 15 00 00
	00 00		 lea	 rdx, OFFSET FLAT:??_C@_0M@KIBDPGDE@Hello?5world@
  00042	48 8b 0d 00 00
	00 00		 mov	 rcx, QWORD PTR __imp_?cout@std@@3V?$basic_ostream@DU?$char_traits@D@std@@@1@A
  00049	e8 00 00 00 00	 call	 ??$?6U?$char_traits@D@std@@@std@@YAAEAV?$basic_ostream@DU?$char_traits@D@std@@@0@AEAV10@PEBD@Z ; std::operator<<<std::char_traits<char> >

; 98   : 	//could also be written as
; 99   : 	//	std::cout << "Hello world"
; 100  : 
; 101  : 	//Note that cout is only a single line print and does not print information onto a second line
; 102  : 
; 103  : 	// << is an insertion operator and inserts the string after it into the object cout from the std namespace library
; 104  : 
; 105  : 	std::cout << "Hello world";

  0004e	48 8d 15 00 00
	00 00		 lea	 rdx, OFFSET FLAT:??_C@_0M@KIBDPGDE@Hello?5world@
  00055	48 8b 0d 00 00
	00 00		 mov	 rcx, QWORD PTR __imp_?cout@std@@3V?$basic_ostream@DU?$char_traits@D@std@@@1@A
  0005c	e8 00 00 00 00	 call	 ??$?6U?$char_traits@D@std@@@std@@YAAEAV?$basic_ostream@DU?$char_traits@D@std@@@0@AEAV10@PEBD@Z ; std::operator<<<std::char_traits<char> >

; 106  : 	std::cout << "I am learning C++";

  00061	48 8d 15 00 00
	00 00		 lea	 rdx, OFFSET FLAT:??_C@_0BC@MIJPDIEH@I?5am?5learning?5C?$CL?$CL@
  00068	48 8b 0d 00 00
	00 00		 mov	 rcx, QWORD PTR __imp_?cout@std@@3V?$basic_ostream@DU?$char_traits@D@std@@@1@A
  0006f	e8 00 00 00 00	 call	 ??$?6U?$char_traits@D@std@@@std@@YAAEAV?$basic_ostream@DU?$char_traits@D@std@@@0@AEAV10@PEBD@Z ; std::operator<<<std::char_traits<char> >

; 107  : 
; 108  : 	// to print cout to a new line use the \n character at the end of the string to print it into a new line.
; 109  : 
; 110  : 	std::cout << "Hello world on a new line\n";

  00074	48 8d 15 00 00
	00 00		 lea	 rdx, OFFSET FLAT:??_C@_0BL@FEAEPCOP@Hello?5world?5on?5a?5new?5line?6@
  0007b	48 8b 0d 00 00
	00 00		 mov	 rcx, QWORD PTR __imp_?cout@std@@3V?$basic_ostream@DU?$char_traits@D@std@@@1@A
  00082	e8 00 00 00 00	 call	 ??$?6U?$char_traits@D@std@@@std@@YAAEAV?$basic_ostream@DU?$char_traits@D@std@@@0@AEAV10@PEBD@Z ; std::operator<<<std::char_traits<char> >

; 111  : 	std::cout << "I am learning C++\n";

  00087	48 8d 15 00 00
	00 00		 lea	 rdx, OFFSET FLAT:??_C@_0BD@BCJPKDIB@I?5am?5learning?5C?$CL?$CL?6@
  0008e	48 8b 0d 00 00
	00 00		 mov	 rcx, QWORD PTR __imp_?cout@std@@3V?$basic_ostream@DU?$char_traits@D@std@@@1@A
  00095	e8 00 00 00 00	 call	 ??$?6U?$char_traits@D@std@@@std@@YAAEAV?$basic_ostream@DU?$char_traits@D@std@@@0@AEAV10@PEBD@Z ; std::operator<<<std::char_traits<char> >

; 112  : 
; 113  : 	// multiple new lines can be created using this character like so.
; 114  : 
; 115  : 	std::cout << "I am learning C++\n\n";

  0009a	48 8d 15 00 00
	00 00		 lea	 rdx, OFFSET FLAT:??_C@_0BE@GAECMEJP@I?5am?5learning?5C?$CL?$CL?6?6@
  000a1	48 8b 0d 00 00
	00 00		 mov	 rcx, QWORD PTR __imp_?cout@std@@3V?$basic_ostream@DU?$char_traits@D@std@@@1@A
  000a8	e8 00 00 00 00	 call	 ??$?6U?$char_traits@D@std@@@std@@YAAEAV?$basic_ostream@DU?$char_traits@D@std@@@0@AEAV10@PEBD@Z ; std::operator<<<std::char_traits<char> >

; 116  : 	std::cout << "Great day ain't it?\n\n";

  000ad	48 8d 15 00 00
	00 00		 lea	 rdx, OFFSET FLAT:??_C@_0BG@KLNHFDLK@Great?5day?5ain?8t?5it?$DP?6?6@
  000b4	48 8b 0d 00 00
	00 00		 mov	 rcx, QWORD PTR __imp_?cout@std@@3V?$basic_ostream@DU?$char_traits@D@std@@@1@A
  000bb	e8 00 00 00 00	 call	 ??$?6U?$char_traits@D@std@@@std@@YAAEAV?$basic_ostream@DU?$char_traits@D@std@@@0@AEAV10@PEBD@Z ; std::operator<<<std::char_traits<char> >

; 117  : 
; 118  : 	// another way of adding a new line is using the endl manipulator at the end of the cout string...
; 119  : 
; 120  : 	std::cout << "Weather kind of sucks no?" << endl;

  000c0	48 8d 15 00 00
	00 00		 lea	 rdx, OFFSET FLAT:??_C@_0BK@FKMNAKKG@Weather?5kind?5of?5sucks?5no?$DP@
  000c7	48 8b 0d 00 00
	00 00		 mov	 rcx, QWORD PTR __imp_?cout@std@@3V?$basic_ostream@DU?$char_traits@D@std@@@1@A
  000ce	e8 00 00 00 00	 call	 ??$?6U?$char_traits@D@std@@@std@@YAAEAV?$basic_ostream@DU?$char_traits@D@std@@@0@AEAV10@PEBD@Z ; std::operator<<<std::char_traits<char> >
  000d3	48 8d 15 00 00
	00 00		 lea	 rdx, OFFSET FLAT:??$endl@DU?$char_traits@D@std@@@std@@YAAEAV?$basic_ostream@DU?$char_traits@D@std@@@0@AEAV10@@Z ; std::endl<char,std::char_traits<char> >
  000da	48 8b c8	 mov	 rcx, rax
  000dd	ff 15 00 00 00
	00		 call	 QWORD PTR __imp_??6?$basic_ostream@DU?$char_traits@D@std@@@std@@QEAAAEAV01@P6AAEAV01@AEAV01@@Z@Z

; 121  : 	std::cout << "Just kidding it's a hot day!\n\n";

  000e3	48 8d 15 00 00
	00 00		 lea	 rdx, OFFSET FLAT:??_C@_0BP@GICJMLGF@Just?5kidding?5it?8s?5a?5hot?5day?$CB?6?6@
  000ea	48 8b 0d 00 00
	00 00		 mov	 rcx, QWORD PTR __imp_?cout@std@@3V?$basic_ostream@DU?$char_traits@D@std@@@1@A
  000f1	e8 00 00 00 00	 call	 ??$?6U?$char_traits@D@std@@@std@@YAAEAV?$basic_ostream@DU?$char_traits@D@std@@@0@AEAV10@PEBD@Z ; std::operator<<<std::char_traits<char> >

; 122  : 
; 123  : 	// just keep in mind that \n is the preferred way to do this and that \n is also universal from c language.
; 124  : 	int myNum = 15;

  000f6	c7 45 04 0f 00
	00 00		 mov	 DWORD PTR myNum$[rbp], 15

; 125  : 	std::cout << myNum;

  000fd	8b 55 04	 mov	 edx, DWORD PTR myNum$[rbp]
  00100	48 8b 0d 00 00
	00 00		 mov	 rcx, QWORD PTR __imp_?cout@std@@3V?$basic_ostream@DU?$char_traits@D@std@@@1@A
  00107	ff 15 00 00 00
	00		 call	 QWORD PTR __imp_??6?$basic_ostream@DU?$char_traits@D@std@@@std@@QEAAAEAV01@H@Z

; 126  : 
; 127  : 	// a variable can also be created without assigning a value and then assigning the value later.
; 128  : 	int myNum2;
; 129  : 	myNum2 = 10;

  0010d	c7 45 24 0a 00
	00 00		 mov	 DWORD PTR myNum2$[rbp], 10

; 130  : 	std::cout << myNum2;

  00114	8b 55 24	 mov	 edx, DWORD PTR myNum2$[rbp]
  00117	48 8b 0d 00 00
	00 00		 mov	 rcx, QWORD PTR __imp_?cout@std@@3V?$basic_ostream@DU?$char_traits@D@std@@@1@A
  0011e	ff 15 00 00 00
	00		 call	 QWORD PTR __imp_??6?$basic_ostream@DU?$char_traits@D@std@@@std@@QEAAAEAV01@H@Z

; 131  : 
; 132  : 	// examples of declaring each data type
; 133  : 	int myNum3 = 5;

  00124	c7 45 44 05 00
	00 00		 mov	 DWORD PTR myNum3$[rbp], 5

; 134  : 	double myFloatNum = 5.99;

  0012b	f2 0f 10 05 00
	00 00 00	 movsd	 xmm0, QWORD PTR __real@4017f5c28f5c28f6
  00133	f2 0f 11 45 68	 movsd	 QWORD PTR myFloatNum$[rbp], xmm0

; 135  : 	char myLetter = 'D';

  00138	c6 85 84 00 00
	00 44		 mov	 BYTE PTR myLetter$[rbp], 68 ; 00000044H

; 136  : 	std::string myText = "Hello";

  0013f	48 8d 15 00 00
	00 00		 lea	 rdx, OFFSET FLAT:??_C@_05COLMCDPH@Hello@
  00146	48 8d 8d a8 00
	00 00		 lea	 rcx, QWORD PTR myText$[rbp]
  0014d	e8 00 00 00 00	 call	 ??0?$basic_string@DU?$char_traits@D@std@@V?$allocator@D@2@@std@@QEAA@QEBD@Z ; std::basic_string<char,std::char_traits<char>,std::allocator<char> >::basic_string<char,std::char_traits<char>,std::allocator<char> >
  00152	90		 npad	 1

; 137  : 	bool myBoolean = true;

  00153	c6 85 e4 00 00
	00 01		 mov	 BYTE PTR myBoolean$[rbp], 1

; 138  : 
; 139  : 	// remember that string is an object of class std so unless 'using namespace std' is specified then std::string will also need to be used when declaring a string.
; 140  : 
; 141  : 	// how to print out variables together
; 142  : 	int myAge = 35;

  0015a	c7 85 04 01 00
	00 23 00 00 00	 mov	 DWORD PTR myAge$[rbp], 35 ; 00000023H

; 143  : 	std::cout << "I am " << myAge << " Years old\n\n";

  00164	48 8d 15 00 00
	00 00		 lea	 rdx, OFFSET FLAT:??_C@_05PBLKMGEL@I?5am?5@
  0016b	48 8b 0d 00 00
	00 00		 mov	 rcx, QWORD PTR __imp_?cout@std@@3V?$basic_ostream@DU?$char_traits@D@std@@@1@A
  00172	e8 00 00 00 00	 call	 ??$?6U?$char_traits@D@std@@@std@@YAAEAV?$basic_ostream@DU?$char_traits@D@std@@@0@AEAV10@PEBD@Z ; std::operator<<<std::char_traits<char> >
  00177	8b 95 04 01 00
	00		 mov	 edx, DWORD PTR myAge$[rbp]
  0017d	48 8b c8	 mov	 rcx, rax
  00180	ff 15 00 00 00
	00		 call	 QWORD PTR __imp_??6?$basic_ostream@DU?$char_traits@D@std@@@std@@QEAAAEAV01@H@Z
  00186	48 8d 15 00 00
	00 00		 lea	 rdx, OFFSET FLAT:??_C@_0N@CIOKKJFG@?5Years?5old?6?6@
  0018d	48 8b c8	 mov	 rcx, rax
  00190	e8 00 00 00 00	 call	 ??$?6U?$char_traits@D@std@@@std@@YAAEAV?$basic_ostream@DU?$char_traits@D@std@@@0@AEAV10@PEBD@Z ; std::operator<<<std::char_traits<char> >

; 144  : 
; 145  : 	// addition in cpp
; 146  : 
; 147  : 	int x = 5;

  00195	c7 85 24 01 00
	00 05 00 00 00	 mov	 DWORD PTR x$[rbp], 5

; 148  : 	int y = 6;

  0019f	c7 85 44 01 00
	00 06 00 00 00	 mov	 DWORD PTR y$[rbp], 6

; 149  : 	int sum = x + y;

  001a9	8b 85 44 01 00
	00		 mov	 eax, DWORD PTR y$[rbp]
  001af	8b 8d 24 01 00
	00		 mov	 ecx, DWORD PTR x$[rbp]
  001b5	03 c8		 add	 ecx, eax
  001b7	8b c1		 mov	 eax, ecx
  001b9	89 85 64 01 00
	00		 mov	 DWORD PTR sum$[rbp], eax

; 150  : 
; 151  : 	std::cout << sum;

  001bf	8b 95 64 01 00
	00		 mov	 edx, DWORD PTR sum$[rbp]
  001c5	48 8b 0d 00 00
	00 00		 mov	 rcx, QWORD PTR __imp_?cout@std@@3V?$basic_ostream@DU?$char_traits@D@std@@@1@A
  001cc	ff 15 00 00 00
	00		 call	 QWORD PTR __imp_??6?$basic_ostream@DU?$char_traits@D@std@@@std@@QEAAAEAV01@H@Z

; 152  : 
; 153  : 	return notmain();

  001d2	e8 00 00 00 00	 call	 ?notmain@@YAHXZ		; notmain
  001d7	89 85 44 02 00
	00		 mov	 DWORD PTR $T4[rbp], eax
  001dd	48 8d 8d a8 00
	00 00		 lea	 rcx, QWORD PTR myText$[rbp]
  001e4	e8 00 00 00 00	 call	 ??1?$basic_string@DU?$char_traits@D@std@@V?$allocator@D@2@@std@@QEAA@XZ ; std::basic_string<char,std::char_traits<char>,std::allocator<char> >::~basic_string<char,std::char_traits<char>,std::allocator<char> >
  001e9	8b 85 44 02 00
	00		 mov	 eax, DWORD PTR $T4[rbp]

; 154  : }

  001ef	8b f8		 mov	 edi, eax
  001f1	48 8d 4d e0	 lea	 rcx, QWORD PTR [rbp-32]
  001f5	48 8d 15 00 00
	00 00		 lea	 rdx, OFFSET FLAT:main$rtcFrameData
  001fc	e8 00 00 00 00	 call	 _RTC_CheckStackVars
  00201	8b c7		 mov	 eax, edi
  00203	48 8b 8d 58 02
	00 00		 mov	 rcx, QWORD PTR __$ArrayPad$[rbp]
  0020a	48 33 cd	 xor	 rcx, rbp
  0020d	e8 00 00 00 00	 call	 __security_check_cookie
  00212	48 8d a5 68 02
	00 00		 lea	 rsp, QWORD PTR [rbp+616]
  00219	5f		 pop	 rdi
  0021a	5d		 pop	 rbp
  0021b	c3		 ret	 0
main	ENDP
_TEXT	ENDS
;	COMDAT text$x
text$x	SEGMENT
myNum$ = 4
myNum2$ = 36
myNum3$ = 68
myFloatNum$ = 104
myLetter$ = 132
myText$ = 168
myBoolean$ = 228
myAge$ = 260
x$ = 292
y$ = 324
sum$ = 356
$T4 = 580
__$ArrayPad$ = 600
main$dtor$0 PROC
  00000	48 89 4c 24 08	 mov	 QWORD PTR [rsp+8], rcx
  00005	48 89 54 24 10	 mov	 QWORD PTR [rsp+16], rdx
  0000a	55		 push	 rbp
  0000b	57		 push	 rdi
  0000c	48 83 ec 28	 sub	 rsp, 40			; 00000028H
  00010	48 8d 6a 20	 lea	 rbp, QWORD PTR [rdx+32]
  00014	48 8d 8d a8 00
	00 00		 lea	 rcx, QWORD PTR myText$[rbp]
  0001b	e8 00 00 00 00	 call	 ??1?$basic_string@DU?$char_traits@D@std@@V?$allocator@D@2@@std@@QEAA@XZ ; std::basic_string<char,std::char_traits<char>,std::allocator<char> >::~basic_string<char,std::char_traits<char>,std::allocator<char> >
  00020	48 83 c4 28	 add	 rsp, 40			; 00000028H
  00024	5f		 pop	 rdi
  00025	5d		 pop	 rbp
  00026	c3		 ret	 0
main$dtor$0 ENDP
text$x	ENDS
; Function compile flags: /Odtp /RTCsu /ZI
;	COMDAT text$x
text$x	SEGMENT
myNum$ = 4
myNum2$ = 36
myNum3$ = 68
myFloatNum$ = 104
myLetter$ = 132
myText$ = 168
myBoolean$ = 228
myAge$ = 260
x$ = 292
y$ = 324
sum$ = 356
$T4 = 580
__$ArrayPad$ = 600
main$dtor$0 PROC
  00000	48 89 4c 24 08	 mov	 QWORD PTR [rsp+8], rcx
  00005	48 89 54 24 10	 mov	 QWORD PTR [rsp+16], rdx
  0000a	55		 push	 rbp
  0000b	57		 push	 rdi
  0000c	48 83 ec 28	 sub	 rsp, 40			; 00000028H
  00010	48 8d 6a 20	 lea	 rbp, QWORD PTR [rdx+32]
  00014	48 8d 8d a8 00
	00 00		 lea	 rcx, QWORD PTR myText$[rbp]
  0001b	e8 00 00 00 00	 call	 ??1?$basic_string@DU?$char_traits@D@std@@V?$allocator@D@2@@std@@QEAA@XZ ; std::basic_string<char,std::char_traits<char>,std::allocator<char> >::~basic_string<char,std::char_traits<char>,std::allocator<char> >
  00020	48 83 c4 28	 add	 rsp, 40			; 00000028H
  00024	5f		 pop	 rdi
  00025	5d		 pop	 rbp
  00026	c3		 ret	 0
main$dtor$0 ENDP
text$x	ENDS
; Function compile flags: /Odtp /RTCsu /ZI
; File A:\Server\Projects\w3schools Cpp_v2\w3schools_cpp_course\line_printing.cpp
;	COMDAT ?notmain@@YAHXZ
_TEXT	SEGMENT
x$ = 4
y$ = 36
z$ = 68
?notmain@@YAHXZ PROC					; notmain, COMDAT

; 44   : int notmain() {

$LN3:
  00000	40 55		 push	 rbp
  00002	57		 push	 rdi
  00003	48 81 ec 48 01
	00 00		 sub	 rsp, 328		; 00000148H
  0000a	48 8d 6c 24 20	 lea	 rbp, QWORD PTR [rsp+32]
  0000f	48 8b fc	 mov	 rdi, rsp
  00012	b9 52 00 00 00	 mov	 ecx, 82			; 00000052H
  00017	b8 cc cc cc cc	 mov	 eax, -858993460		; ccccccccH
  0001c	f3 ab		 rep stosd
  0001e	48 8d 0d 00 00
	00 00		 lea	 rcx, OFFSET FLAT:__2DA40AF6_line_printing@cpp
  00025	e8 00 00 00 00	 call	 __CheckForDebuggerJustMyCode

; 45   : 	// demonstration of declaring multiple variables data type using a comma to seperate them. declare the initial data type for the first variable and then use a comma with other new variables and the compilier will assign their data type accordingling.
; 46   : 	int x = 5, y = 7, z = 50;

  0002a	c7 45 04 05 00
	00 00		 mov	 DWORD PTR x$[rbp], 5
  00031	c7 45 24 07 00
	00 00		 mov	 DWORD PTR y$[rbp], 7
  00038	c7 45 44 32 00
	00 00		 mov	 DWORD PTR z$[rbp], 50	; 00000032H

; 47   : 	cout << x + y + z;

  0003f	8b 45 24	 mov	 eax, DWORD PTR y$[rbp]
  00042	8b 4d 04	 mov	 ecx, DWORD PTR x$[rbp]
  00045	03 c8		 add	 ecx, eax
  00047	8b c1		 mov	 eax, ecx
  00049	03 45 44	 add	 eax, DWORD PTR z$[rbp]
  0004c	8b d0		 mov	 edx, eax
  0004e	48 8b 0d 00 00
	00 00		 mov	 rcx, QWORD PTR __imp_?cout@std@@3V?$basic_ostream@DU?$char_traits@D@std@@@1@A
  00055	ff 15 00 00 00
	00		 call	 QWORD PTR __imp_??6?$basic_ostream@DU?$char_traits@D@std@@@std@@QEAAAEAV01@H@Z

; 48   : 
; 49   : 	return inout();

  0005b	e8 00 00 00 00	 call	 ?inout@@YAHXZ		; inout

; 50   : }

  00060	48 8d a5 28 01
	00 00		 lea	 rsp, QWORD PTR [rbp+296]
  00067	5f		 pop	 rdi
  00068	5d		 pop	 rbp
  00069	c3		 ret	 0
?notmain@@YAHXZ ENDP					; notmain
_TEXT	ENDS
; Function compile flags: /Odtp /RTCsu /ZI
; File A:\Server\Projects\w3schools Cpp_v2\w3schools_cpp_course\line_printing.cpp
;	COMDAT ?inout@@YAHXZ
_TEXT	SEGMENT
x$ = 4
__$ArrayPad$ = 216
?inout@@YAHXZ PROC					; inout, COMDAT

; 36   : int inout() {

$LN3:
  00000	40 55		 push	 rbp
  00002	57		 push	 rdi
  00003	48 81 ec 08 01
	00 00		 sub	 rsp, 264		; 00000108H
  0000a	48 8d 6c 24 20	 lea	 rbp, QWORD PTR [rsp+32]
  0000f	48 8b fc	 mov	 rdi, rsp
  00012	b9 42 00 00 00	 mov	 ecx, 66			; 00000042H
  00017	b8 cc cc cc cc	 mov	 eax, -858993460		; ccccccccH
  0001c	f3 ab		 rep stosd
  0001e	48 8b 05 00 00
	00 00		 mov	 rax, QWORD PTR __security_cookie
  00025	48 33 c5	 xor	 rax, rbp
  00028	48 89 85 d8 00
	00 00		 mov	 QWORD PTR __$ArrayPad$[rbp], rax
  0002f	48 8d 0d 00 00
	00 00		 lea	 rcx, OFFSET FLAT:__2DA40AF6_line_printing@cpp
  00036	e8 00 00 00 00	 call	 __CheckForDebuggerJustMyCode

; 37   : 	int x;
; 38   : 	cout << "Type a number: "; // Type a number and press enter

  0003b	48 8d 15 00 00
	00 00		 lea	 rdx, OFFSET FLAT:??_C@_0BA@LDFHCECK@Type?5a?5number?3?5@
  00042	48 8b 0d 00 00
	00 00		 mov	 rcx, QWORD PTR __imp_?cout@std@@3V?$basic_ostream@DU?$char_traits@D@std@@@1@A
  00049	e8 00 00 00 00	 call	 ??$?6U?$char_traits@D@std@@@std@@YAAEAV?$basic_ostream@DU?$char_traits@D@std@@@0@AEAV10@PEBD@Z ; std::operator<<<std::char_traits<char> >

; 39   : 	cin >> x; //Get user input from the keyboard

  0004e	48 8d 55 04	 lea	 rdx, QWORD PTR x$[rbp]
  00052	48 8b 0d 00 00
	00 00		 mov	 rcx, QWORD PTR __imp_?cin@std@@3V?$basic_istream@DU?$char_traits@D@std@@@1@A
  00059	ff 15 00 00 00
	00		 call	 QWORD PTR __imp_??5?$basic_istream@DU?$char_traits@D@std@@@std@@QEAAAEAV01@AEAH@Z

; 40   : 	cout << "Your number is: " << x; //Display the input variable

  0005f	48 8d 15 00 00
	00 00		 lea	 rdx, OFFSET FLAT:??_C@_0BB@IKKEJHJF@Your?5number?5is?3?5@
  00066	48 8b 0d 00 00
	00 00		 mov	 rcx, QWORD PTR __imp_?cout@std@@3V?$basic_ostream@DU?$char_traits@D@std@@@1@A
  0006d	e8 00 00 00 00	 call	 ??$?6U?$char_traits@D@std@@@std@@YAAEAV?$basic_ostream@DU?$char_traits@D@std@@@0@AEAV10@PEBD@Z ; std::operator<<<std::char_traits<char> >
  00072	8b 55 04	 mov	 edx, DWORD PTR x$[rbp]
  00075	48 8b c8	 mov	 rcx, rax
  00078	ff 15 00 00 00
	00		 call	 QWORD PTR __imp_??6?$basic_ostream@DU?$char_traits@D@std@@@std@@QEAAAEAV01@H@Z

; 41   : 	return calc();

  0007e	e8 00 00 00 00	 call	 ?calc@@YAHXZ		; calc

; 42   : }

  00083	48 8b f8	 mov	 rdi, rax
  00086	48 8d 4d e0	 lea	 rcx, QWORD PTR [rbp-32]
  0008a	48 8d 15 00 00
	00 00		 lea	 rdx, OFFSET FLAT:?inout@@YAHXZ$rtcFrameData
  00091	e8 00 00 00 00	 call	 _RTC_CheckStackVars
  00096	48 8b c7	 mov	 rax, rdi
  00099	48 8b 8d d8 00
	00 00		 mov	 rcx, QWORD PTR __$ArrayPad$[rbp]
  000a0	48 33 cd	 xor	 rcx, rbp
  000a3	e8 00 00 00 00	 call	 __security_check_cookie
  000a8	48 8d a5 e8 00
	00 00		 lea	 rsp, QWORD PTR [rbp+232]
  000af	5f		 pop	 rdi
  000b0	5d		 pop	 rbp
  000b1	c3		 ret	 0
?inout@@YAHXZ ENDP					; inout
_TEXT	ENDS
; Function compile flags: /Odtp /RTCsu /ZI
; File C:\Program Files (x86)\Microsoft Visual Studio\2019\Community\VC\Tools\MSVC\14.27.29110\include\ostream
;	COMDAT ??$?6U?$char_traits@D@std@@@std@@YAAEAV?$basic_ostream@DU?$char_traits@D@std@@@0@AEAV10@PEBD@Z
_TEXT	SEGMENT
_State$ = 4
_Count$ = 40
_Pad$ = 72
_Ok$ = 104
$T4 = 340
$T5 = 372
$T6 = 404
$T7 = 436
$T8 = 472
tv300 = 484
tv295 = 484
tv139 = 484
tv301 = 488
tv298 = 488
tv296 = 488
tv137 = 488
tv302 = 496
tv299 = 496
tv297 = 496
__$ArrayPad$ = 504
_Ostr$ = 544
_Val$ = 552
??$?6U?$char_traits@D@std@@@std@@YAAEAV?$basic_ostream@DU?$char_traits@D@std@@@0@AEAV10@PEBD@Z PROC ; std::operator<<<std::char_traits<char> >, COMDAT

; 735  :     const char* _Val) { // insert NTBS into char stream

$LN25:
  00000	48 89 54 24 10	 mov	 QWORD PTR [rsp+16], rdx
  00005	48 89 4c 24 08	 mov	 QWORD PTR [rsp+8], rcx
  0000a	55		 push	 rbp
  0000b	57		 push	 rdi
  0000c	48 81 ec 28 02
	00 00		 sub	 rsp, 552		; 00000228H
  00013	48 8d 6c 24 20	 lea	 rbp, QWORD PTR [rsp+32]
  00018	48 8b fc	 mov	 rdi, rsp
  0001b	b9 8a 00 00 00	 mov	 ecx, 138		; 0000008aH
  00020	b8 cc cc cc cc	 mov	 eax, -858993460		; ccccccccH
  00025	f3 ab		 rep stosd
  00027	48 8b 8c 24 48
	02 00 00	 mov	 rcx, QWORD PTR [rsp+584]
  0002f	48 8b 05 00 00
	00 00		 mov	 rax, QWORD PTR __security_cookie
  00036	48 33 c5	 xor	 rax, rbp
  00039	48 89 85 f8 01
	00 00		 mov	 QWORD PTR __$ArrayPad$[rbp], rax
  00040	48 8d 0d 00 00
	00 00		 lea	 rcx, OFFSET FLAT:__1D745195_ostream
  00047	e8 00 00 00 00	 call	 __CheckForDebuggerJustMyCode

; 736  :     using _Elem = char;
; 737  :     using _Myos = basic_ostream<_Elem, _Traits>;
; 738  : 
; 739  :     ios_base::iostate _State = ios_base::goodbit;

  0004c	c7 45 04 00 00
	00 00		 mov	 DWORD PTR _State$[rbp], 0

; 740  :     streamsize _Count        = static_cast<streamsize>(_Traits::length(_Val));

  00053	48 8b 8d 28 02
	00 00		 mov	 rcx, QWORD PTR _Val$[rbp]
  0005a	e8 00 00 00 00	 call	 ?length@?$_Narrow_char_traits@DH@std@@SA_KQEBD@Z ; std::_Narrow_char_traits<char,int>::length
  0005f	48 89 45 28	 mov	 QWORD PTR _Count$[rbp], rax

; 741  :     streamsize _Pad          = _Ostr.width() <= 0 || _Ostr.width() <= _Count ? 0 : _Ostr.width() - _Count;

  00063	48 8b 85 20 02
	00 00		 mov	 rax, QWORD PTR _Ostr$[rbp]
  0006a	48 8b 00	 mov	 rax, QWORD PTR [rax]
  0006d	48 63 40 04	 movsxd	 rax, DWORD PTR [rax+4]
  00071	48 8b 8d 20 02
	00 00		 mov	 rcx, QWORD PTR _Ostr$[rbp]
  00078	48 03 c8	 add	 rcx, rax
  0007b	48 8b c1	 mov	 rax, rcx
  0007e	48 8b c8	 mov	 rcx, rax
  00081	ff 15 00 00 00
	00		 call	 QWORD PTR __imp_?width@ios_base@std@@QEBA_JXZ
  00087	48 85 c0	 test	 rax, rax
  0008a	7e 5b		 jle	 SHORT $LN17@operator
  0008c	48 8b 85 20 02
	00 00		 mov	 rax, QWORD PTR _Ostr$[rbp]
  00093	48 8b 00	 mov	 rax, QWORD PTR [rax]
  00096	48 63 40 04	 movsxd	 rax, DWORD PTR [rax+4]
  0009a	48 8b 8d 20 02
	00 00		 mov	 rcx, QWORD PTR _Ostr$[rbp]
  000a1	48 03 c8	 add	 rcx, rax
  000a4	48 8b c1	 mov	 rax, rcx
  000a7	48 8b c8	 mov	 rcx, rax
  000aa	ff 15 00 00 00
	00		 call	 QWORD PTR __imp_?width@ios_base@std@@QEBA_JXZ
  000b0	48 3b 45 28	 cmp	 rax, QWORD PTR _Count$[rbp]
  000b4	7e 31		 jle	 SHORT $LN17@operator
  000b6	48 8b 85 20 02
	00 00		 mov	 rax, QWORD PTR _Ostr$[rbp]
  000bd	48 8b 00	 mov	 rax, QWORD PTR [rax]
  000c0	48 63 40 04	 movsxd	 rax, DWORD PTR [rax+4]
  000c4	48 8b 8d 20 02
	00 00		 mov	 rcx, QWORD PTR _Ostr$[rbp]
  000cb	48 03 c8	 add	 rcx, rax
  000ce	48 8b c1	 mov	 rax, rcx
  000d1	48 8b c8	 mov	 rcx, rax
  000d4	ff 15 00 00 00
	00		 call	 QWORD PTR __imp_?width@ios_base@std@@QEBA_JXZ
  000da	48 2b 45 28	 sub	 rax, QWORD PTR _Count$[rbp]
  000de	48 89 85 e8 01
	00 00		 mov	 QWORD PTR tv137[rbp], rax
  000e5	eb 0b		 jmp	 SHORT $LN18@operator
$LN17@operator:
  000e7	48 c7 85 e8 01
	00 00 00 00 00
	00		 mov	 QWORD PTR tv137[rbp], 0
$LN18@operator:
  000f2	48 8b 85 e8 01
	00 00		 mov	 rax, QWORD PTR tv137[rbp]
  000f9	48 89 45 48	 mov	 QWORD PTR _Pad$[rbp], rax

; 742  :     const typename _Myos::sentry _Ok(_Ostr);

  000fd	48 8b 95 20 02
	00 00		 mov	 rdx, QWORD PTR _Ostr$[rbp]
  00104	48 8d 4d 68	 lea	 rcx, QWORD PTR _Ok$[rbp]
  00108	e8 00 00 00 00	 call	 ??0sentry@?$basic_ostream@DU?$char_traits@D@std@@@std@@QEAA@AEAV12@@Z ; std::basic_ostream<char,std::char_traits<char> >::sentry::sentry
  0010d	90		 npad	 1

; 743  : 
; 744  :     if (!_Ok) {

  0010e	48 8d 4d 68	 lea	 rcx, QWORD PTR _Ok$[rbp]
  00112	e8 00 00 00 00	 call	 ??Bsentry@?$basic_ostream@DU?$char_traits@D@std@@@std@@QEBA_NXZ ; std::basic_ostream<char,std::char_traits<char> >::sentry::operator bool
  00117	0f b6 c0	 movzx	 eax, al
  0011a	85 c0		 test	 eax, eax
  0011c	75 0e		 jne	 SHORT $LN8@operator

; 745  :         _State |= ios_base::badbit;

  0011e	8b 45 04	 mov	 eax, DWORD PTR _State$[rbp]
  00121	83 c8 04	 or	 eax, 4
  00124	89 45 04	 mov	 DWORD PTR _State$[rbp], eax

; 746  :     } else { // state okay, insert

  00127	e9 67 02 00 00	 jmp	 $LN9@operator
$LN8@operator:

; 747  :         _TRY_IO_BEGIN
; 748  :         if ((_Ostr.flags() & ios_base::adjustfield) != ios_base::left) {

  0012c	48 8b 85 20 02
	00 00		 mov	 rax, QWORD PTR _Ostr$[rbp]
  00133	48 8b 00	 mov	 rax, QWORD PTR [rax]
  00136	48 63 40 04	 movsxd	 rax, DWORD PTR [rax+4]
  0013a	48 8b 8d 20 02
	00 00		 mov	 rcx, QWORD PTR _Ostr$[rbp]
  00141	48 03 c8	 add	 rcx, rax
  00144	48 8b c1	 mov	 rax, rcx
  00147	48 8b c8	 mov	 rcx, rax
  0014a	ff 15 00 00 00
	00		 call	 QWORD PTR __imp_?flags@ios_base@std@@QEBAHXZ
  00150	89 85 e4 01 00
	00		 mov	 DWORD PTR tv139[rbp], eax
  00156	8b 85 e4 01 00
	00		 mov	 eax, DWORD PTR tv139[rbp]
  0015c	25 c0 01 00 00	 and	 eax, 448		; 000001c0H
  00161	83 f8 40	 cmp	 eax, 64			; 00000040H
  00164	0f 84 c8 00 00
	00		 je	 $LN11@operator

; 749  :             for (; 0 < _Pad; --_Pad) { // pad on left

  0016a	eb 0b		 jmp	 SHORT $LN4@operator
$LN2@operator:
  0016c	48 8b 45 48	 mov	 rax, QWORD PTR _Pad$[rbp]
  00170	48 ff c8	 dec	 rax
  00173	48 89 45 48	 mov	 QWORD PTR _Pad$[rbp], rax
$LN4@operator:
  00177	48 83 7d 48 00	 cmp	 QWORD PTR _Pad$[rbp], 0
  0017c	0f 8e b0 00 00
	00		 jle	 $LN11@operator

; 750  :                 if (_Traits::eq_int_type(_Traits::eof(), _Ostr.rdbuf()->sputc(_Ostr.fill()))) {

  00182	48 8b 85 20 02
	00 00		 mov	 rax, QWORD PTR _Ostr$[rbp]
  00189	48 8b 00	 mov	 rax, QWORD PTR [rax]
  0018c	48 63 40 04	 movsxd	 rax, DWORD PTR [rax+4]
  00190	48 8b 8d 20 02
	00 00		 mov	 rcx, QWORD PTR _Ostr$[rbp]
  00197	48 03 c8	 add	 rcx, rax
  0019a	48 8b c1	 mov	 rax, rcx
  0019d	48 8b c8	 mov	 rcx, rax
  001a0	ff 15 00 00 00
	00		 call	 QWORD PTR __imp_?fill@?$basic_ios@DU?$char_traits@D@std@@@std@@QEBADXZ
  001a6	88 85 e4 01 00
	00		 mov	 BYTE PTR tv295[rbp], al
  001ac	48 8b 85 20 02
	00 00		 mov	 rax, QWORD PTR _Ostr$[rbp]
  001b3	48 8b 00	 mov	 rax, QWORD PTR [rax]
  001b6	48 63 40 04	 movsxd	 rax, DWORD PTR [rax+4]
  001ba	48 8b 8d 20 02
	00 00		 mov	 rcx, QWORD PTR _Ostr$[rbp]
  001c1	48 03 c8	 add	 rcx, rax
  001c4	48 8b c1	 mov	 rax, rcx
  001c7	48 8b c8	 mov	 rcx, rax
  001ca	ff 15 00 00 00
	00		 call	 QWORD PTR __imp_?rdbuf@?$basic_ios@DU?$char_traits@D@std@@@std@@QEBAPEAV?$basic_streambuf@DU?$char_traits@D@std@@@2@XZ
  001d0	48 89 85 e8 01
	00 00		 mov	 QWORD PTR tv296[rbp], rax
  001d7	0f b6 95 e4 01
	00 00		 movzx	 edx, BYTE PTR tv295[rbp]
  001de	48 8b 8d e8 01
	00 00		 mov	 rcx, QWORD PTR tv296[rbp]
  001e5	ff 15 00 00 00
	00		 call	 QWORD PTR __imp_?sputc@?$basic_streambuf@DU?$char_traits@D@std@@@std@@QEAAHD@Z
  001eb	89 85 f0 01 00
	00		 mov	 DWORD PTR tv297[rbp], eax
  001f1	8b 85 f0 01 00
	00		 mov	 eax, DWORD PTR tv297[rbp]
  001f7	89 85 54 01 00
	00		 mov	 DWORD PTR $T4[rbp], eax
  001fd	e8 00 00 00 00	 call	 ?eof@?$_Narrow_char_traits@DH@std@@SAHXZ ; std::_Narrow_char_traits<char,int>::eof
  00202	89 85 74 01 00
	00		 mov	 DWORD PTR $T5[rbp], eax
  00208	48 8d 95 54 01
	00 00		 lea	 rdx, QWORD PTR $T4[rbp]
  0020f	48 8d 8d 74 01
	00 00		 lea	 rcx, QWORD PTR $T5[rbp]
  00216	e8 00 00 00 00	 call	 ?eq_int_type@?$_Narrow_char_traits@DH@std@@SA_NAEBH0@Z ; std::_Narrow_char_traits<char,int>::eq_int_type
  0021b	0f b6 c0	 movzx	 eax, al
  0021e	85 c0		 test	 eax, eax
  00220	74 0b		 je	 SHORT $LN12@operator

; 751  :                     _State |= ios_base::badbit; // insertion failed, quit

  00222	8b 45 04	 mov	 eax, DWORD PTR _State$[rbp]
  00225	83 c8 04	 or	 eax, 4
  00228	89 45 04	 mov	 DWORD PTR _State$[rbp], eax

; 752  :                     break;

  0022b	eb 05		 jmp	 SHORT $LN11@operator
$LN12@operator:

; 753  :                 }
; 754  :             }

  0022d	e9 3a ff ff ff	 jmp	 $LN2@operator
$LN11@operator:

; 755  :         }
; 756  : 
; 757  :         if (_State == ios_base::goodbit && _Ostr.rdbuf()->sputn(_Val, _Count) != _Count) {

  00232	83 7d 04 00	 cmp	 DWORD PTR _State$[rbp], 0
  00236	75 60		 jne	 SHORT $LN13@operator
  00238	48 8b 85 20 02
	00 00		 mov	 rax, QWORD PTR _Ostr$[rbp]
  0023f	48 8b 00	 mov	 rax, QWORD PTR [rax]
  00242	48 63 40 04	 movsxd	 rax, DWORD PTR [rax+4]
  00246	48 8b 8d 20 02
	00 00		 mov	 rcx, QWORD PTR _Ostr$[rbp]
  0024d	48 03 c8	 add	 rcx, rax
  00250	48 8b c1	 mov	 rax, rcx
  00253	48 8b c8	 mov	 rcx, rax
  00256	ff 15 00 00 00
	00		 call	 QWORD PTR __imp_?rdbuf@?$basic_ios@DU?$char_traits@D@std@@@std@@QEBAPEAV?$basic_streambuf@DU?$char_traits@D@std@@@2@XZ
  0025c	48 89 85 e8 01
	00 00		 mov	 QWORD PTR tv298[rbp], rax
  00263	4c 8b 45 28	 mov	 r8, QWORD PTR _Count$[rbp]
  00267	48 8b 95 28 02
	00 00		 mov	 rdx, QWORD PTR _Val$[rbp]
  0026e	48 8b 8d e8 01
	00 00		 mov	 rcx, QWORD PTR tv298[rbp]
  00275	ff 15 00 00 00
	00		 call	 QWORD PTR __imp_?sputn@?$basic_streambuf@DU?$char_traits@D@std@@@std@@QEAA_JPEBD_J@Z
  0027b	48 89 85 f0 01
	00 00		 mov	 QWORD PTR tv299[rbp], rax
  00282	48 8b 45 28	 mov	 rax, QWORD PTR _Count$[rbp]
  00286	48 39 85 f0 01
	00 00		 cmp	 QWORD PTR tv299[rbp], rax
  0028d	74 09		 je	 SHORT $LN13@operator

; 758  :             _State |= ios_base::badbit;

  0028f	8b 45 04	 mov	 eax, DWORD PTR _State$[rbp]
  00292	83 c8 04	 or	 eax, 4
  00295	89 45 04	 mov	 DWORD PTR _State$[rbp], eax
$LN13@operator:

; 759  :         }
; 760  : 
; 761  :         if (_State == ios_base::goodbit) {

  00298	83 7d 04 00	 cmp	 DWORD PTR _State$[rbp], 0
  0029c	0f 85 c8 00 00
	00		 jne	 $LN14@operator

; 762  :             for (; 0 < _Pad; --_Pad) { // pad on right

  002a2	eb 0b		 jmp	 SHORT $LN7@operator
$LN5@operator:
  002a4	48 8b 45 48	 mov	 rax, QWORD PTR _Pad$[rbp]
  002a8	48 ff c8	 dec	 rax
  002ab	48 89 45 48	 mov	 QWORD PTR _Pad$[rbp], rax
$LN7@operator:
  002af	48 83 7d 48 00	 cmp	 QWORD PTR _Pad$[rbp], 0
  002b4	0f 8e b0 00 00
	00		 jle	 $LN14@operator

; 763  :                 if (_Traits::eq_int_type(_Traits::eof(), _Ostr.rdbuf()->sputc(_Ostr.fill()))) {

  002ba	48 8b 85 20 02
	00 00		 mov	 rax, QWORD PTR _Ostr$[rbp]
  002c1	48 8b 00	 mov	 rax, QWORD PTR [rax]
  002c4	48 63 40 04	 movsxd	 rax, DWORD PTR [rax+4]
  002c8	48 8b 8d 20 02
	00 00		 mov	 rcx, QWORD PTR _Ostr$[rbp]
  002cf	48 03 c8	 add	 rcx, rax
  002d2	48 8b c1	 mov	 rax, rcx
  002d5	48 8b c8	 mov	 rcx, rax
  002d8	ff 15 00 00 00
	00		 call	 QWORD PTR __imp_?fill@?$basic_ios@DU?$char_traits@D@std@@@std@@QEBADXZ
  002de	88 85 e4 01 00
	00		 mov	 BYTE PTR tv300[rbp], al
  002e4	48 8b 85 20 02
	00 00		 mov	 rax, QWORD PTR _Ostr$[rbp]
  002eb	48 8b 00	 mov	 rax, QWORD PTR [rax]
  002ee	48 63 40 04	 movsxd	 rax, DWORD PTR [rax+4]
  002f2	48 8b 8d 20 02
	00 00		 mov	 rcx, QWORD PTR _Ostr$[rbp]
  002f9	48 03 c8	 add	 rcx, rax
  002fc	48 8b c1	 mov	 rax, rcx
  002ff	48 8b c8	 mov	 rcx, rax
  00302	ff 15 00 00 00
	00		 call	 QWORD PTR __imp_?rdbuf@?$basic_ios@DU?$char_traits@D@std@@@std@@QEBAPEAV?$basic_streambuf@DU?$char_traits@D@std@@@2@XZ
  00308	48 89 85 e8 01
	00 00		 mov	 QWORD PTR tv301[rbp], rax
  0030f	0f b6 95 e4 01
	00 00		 movzx	 edx, BYTE PTR tv300[rbp]
  00316	48 8b 8d e8 01
	00 00		 mov	 rcx, QWORD PTR tv301[rbp]
  0031d	ff 15 00 00 00
	00		 call	 QWORD PTR __imp_?sputc@?$basic_streambuf@DU?$char_traits@D@std@@@std@@QEAAHD@Z
  00323	89 85 f0 01 00
	00		 mov	 DWORD PTR tv302[rbp], eax
  00329	8b 85 f0 01 00
	00		 mov	 eax, DWORD PTR tv302[rbp]
  0032f	89 85 94 01 00
	00		 mov	 DWORD PTR $T6[rbp], eax
  00335	e8 00 00 00 00	 call	 ?eof@?$_Narrow_char_traits@DH@std@@SAHXZ ; std::_Narrow_char_traits<char,int>::eof
  0033a	89 85 b4 01 00
	00		 mov	 DWORD PTR $T7[rbp], eax
  00340	48 8d 95 94 01
	00 00		 lea	 rdx, QWORD PTR $T6[rbp]
  00347	48 8d 8d b4 01
	00 00		 lea	 rcx, QWORD PTR $T7[rbp]
  0034e	e8 00 00 00 00	 call	 ?eq_int_type@?$_Narrow_char_traits@DH@std@@SA_NAEBH0@Z ; std::_Narrow_char_traits<char,int>::eq_int_type
  00353	0f b6 c0	 movzx	 eax, al
  00356	85 c0		 test	 eax, eax
  00358	74 0b		 je	 SHORT $LN15@operator

; 764  :                     _State |= ios_base::badbit; // insertion failed, quit

  0035a	8b 45 04	 mov	 eax, DWORD PTR _State$[rbp]
  0035d	83 c8 04	 or	 eax, 4
  00360	89 45 04	 mov	 DWORD PTR _State$[rbp], eax

; 765  :                     break;

  00363	eb 05		 jmp	 SHORT $LN14@operator
$LN15@operator:

; 766  :                 }
; 767  :             }

  00365	e9 3a ff ff ff	 jmp	 $LN5@operator
$LN14@operator:

; 768  :         }
; 769  : 
; 770  :         _Ostr.width(0);

  0036a	48 8b 85 20 02
	00 00		 mov	 rax, QWORD PTR _Ostr$[rbp]
  00371	48 8b 00	 mov	 rax, QWORD PTR [rax]
  00374	48 63 40 04	 movsxd	 rax, DWORD PTR [rax+4]
  00378	48 8b 8d 20 02
	00 00		 mov	 rcx, QWORD PTR _Ostr$[rbp]
  0037f	48 03 c8	 add	 rcx, rax
  00382	48 8b c1	 mov	 rax, rcx
  00385	33 d2		 xor	 edx, edx
  00387	48 8b c8	 mov	 rcx, rax
  0038a	ff 15 00 00 00
	00		 call	 QWORD PTR __imp_?width@ios_base@std@@QEAA_J_J@Z
  00390	90		 npad	 1
  00391	eb 00		 jmp	 SHORT $LN9@operator
$LN23@operator:
$LN9@operator:

; 771  :         _CATCH_IO_(ios_base, _Ostr)
; 772  :     }
; 773  : 
; 774  :     _Ostr.setstate(_State);

  00393	48 8b 85 20 02
	00 00		 mov	 rax, QWORD PTR _Ostr$[rbp]
  0039a	48 8b 00	 mov	 rax, QWORD PTR [rax]
  0039d	48 63 40 04	 movsxd	 rax, DWORD PTR [rax+4]
  003a1	48 8b 8d 20 02
	00 00		 mov	 rcx, QWORD PTR _Ostr$[rbp]
  003a8	48 03 c8	 add	 rcx, rax
  003ab	48 8b c1	 mov	 rax, rcx
  003ae	45 33 c0	 xor	 r8d, r8d
  003b1	8b 55 04	 mov	 edx, DWORD PTR _State$[rbp]
  003b4	48 8b c8	 mov	 rcx, rax
  003b7	ff 15 00 00 00
	00		 call	 QWORD PTR __imp_?setstate@?$basic_ios@DU?$char_traits@D@std@@@std@@QEAAXH_N@Z

; 775  :     return _Ostr;

  003bd	48 8b 85 20 02
	00 00		 mov	 rax, QWORD PTR _Ostr$[rbp]
  003c4	48 89 85 d8 01
	00 00		 mov	 QWORD PTR $T8[rbp], rax
  003cb	48 8d 4d 68	 lea	 rcx, QWORD PTR _Ok$[rbp]
  003cf	e8 00 00 00 00	 call	 ??1sentry@?$basic_ostream@DU?$char_traits@D@std@@@std@@QEAA@XZ ; std::basic_ostream<char,std::char_traits<char> >::sentry::~sentry
  003d4	48 8b 85 d8 01
	00 00		 mov	 rax, QWORD PTR $T8[rbp]

; 776  : }

  003db	48 8b f8	 mov	 rdi, rax
  003de	48 8d 4d e0	 lea	 rcx, QWORD PTR [rbp-32]
  003e2	48 8d 15 00 00
	00 00		 lea	 rdx, OFFSET FLAT:??$?6U?$char_traits@D@std@@@std@@YAAEAV?$basic_ostream@DU?$char_traits@D@std@@@0@AEAV10@PEBD@Z$rtcFrameData
  003e9	e8 00 00 00 00	 call	 _RTC_CheckStackVars
  003ee	48 8b c7	 mov	 rax, rdi
  003f1	48 8b 8d f8 01
	00 00		 mov	 rcx, QWORD PTR __$ArrayPad$[rbp]
  003f8	48 33 cd	 xor	 rcx, rbp
  003fb	e8 00 00 00 00	 call	 __security_check_cookie
  00400	48 8d a5 08 02
	00 00		 lea	 rsp, QWORD PTR [rbp+520]
  00407	5f		 pop	 rdi
  00408	5d		 pop	 rbp
  00409	c3		 ret	 0
??$?6U?$char_traits@D@std@@@std@@YAAEAV?$basic_ostream@DU?$char_traits@D@std@@@0@AEAV10@PEBD@Z ENDP ; std::operator<<<std::char_traits<char> >
_TEXT	ENDS
;	COMDAT text$x
text$x	SEGMENT
_State$ = 4
_Count$ = 40
_Pad$ = 72
_Ok$ = 104
$T4 = 340
$T5 = 372
$T6 = 404
$T7 = 436
$T8 = 472
tv300 = 484
tv295 = 484
tv139 = 484
tv301 = 488
tv298 = 488
tv296 = 488
tv137 = 488
tv302 = 496
tv299 = 496
tv297 = 496
__$ArrayPad$ = 504
_Ostr$ = 544
_Val$ = 552
?dtor$0@?0???$?6U?$char_traits@D@std@@@std@@YAAEAV?$basic_ostream@DU?$char_traits@D@std@@@0@AEAV10@PEBD@Z@4HA PROC ; `std::operator<<<std::char_traits<char> >'::`1'::dtor$0
  00000	48 89 4c 24 08	 mov	 QWORD PTR [rsp+8], rcx
  00005	48 89 54 24 10	 mov	 QWORD PTR [rsp+16], rdx
  0000a	55		 push	 rbp
  0000b	57		 push	 rdi
  0000c	48 83 ec 28	 sub	 rsp, 40			; 00000028H
  00010	48 8d 6a 20	 lea	 rbp, QWORD PTR [rdx+32]
  00014	48 8d 4d 68	 lea	 rcx, QWORD PTR _Ok$[rbp]
  00018	e8 00 00 00 00	 call	 ??1sentry@?$basic_ostream@DU?$char_traits@D@std@@@std@@QEAA@XZ ; std::basic_ostream<char,std::char_traits<char> >::sentry::~sentry
  0001d	48 83 c4 28	 add	 rsp, 40			; 00000028H
  00021	5f		 pop	 rdi
  00022	5d		 pop	 rbp
  00023	c3		 ret	 0
?dtor$0@?0???$?6U?$char_traits@D@std@@@std@@YAAEAV?$basic_ostream@DU?$char_traits@D@std@@@0@AEAV10@PEBD@Z@4HA ENDP ; `std::operator<<<std::char_traits<char> >'::`1'::dtor$0
text$x	ENDS
;	COMDAT text$x
text$x	SEGMENT
_State$ = 4
_Count$ = 40
_Pad$ = 72
_Ok$ = 104
$T4 = 340
$T5 = 372
$T6 = 404
$T7 = 436
$T8 = 472
tv300 = 484
tv295 = 484
tv139 = 484
tv301 = 488
tv298 = 488
tv296 = 488
tv137 = 488
tv302 = 496
tv299 = 496
tv297 = 496
__$ArrayPad$ = 504
_Ostr$ = 544
_Val$ = 552
?catch$1@?0???$?6U?$char_traits@D@std@@@std@@YAAEAV?$basic_ostream@DU?$char_traits@D@std@@@0@AEAV10@PEBD@Z@4HA PROC ; `std::operator<<<std::char_traits<char> >'::`1'::catch$1

; 771  :         _CATCH_IO_(ios_base, _Ostr)

  00000	48 89 4c 24 08	 mov	 QWORD PTR [rsp+8], rcx
  00005	48 89 54 24 10	 mov	 QWORD PTR [rsp+16], rdx
  0000a	55		 push	 rbp
  0000b	57		 push	 rdi
  0000c	48 83 ec 28	 sub	 rsp, 40			; 00000028H
  00010	48 8d 6a 20	 lea	 rbp, QWORD PTR [rdx+32]
__catch$??$?6U?$char_traits@D@std@@@std@@YAAEAV?$basic_ostream@DU?$char_traits@D@std@@@0@AEAV10@PEBD@Z$0:
  00014	48 8b 85 20 02
	00 00		 mov	 rax, QWORD PTR _Ostr$[rbp]
  0001b	48 8b 00	 mov	 rax, QWORD PTR [rax]
  0001e	48 63 40 04	 movsxd	 rax, DWORD PTR [rax+4]
  00022	48 8b 8d 20 02
	00 00		 mov	 rcx, QWORD PTR _Ostr$[rbp]
  00029	48 03 c8	 add	 rcx, rax
  0002c	48 8b c1	 mov	 rax, rcx
  0002f	41 b0 01	 mov	 r8b, 1
  00032	ba 04 00 00 00	 mov	 edx, 4
  00037	48 8b c8	 mov	 rcx, rax
  0003a	ff 15 00 00 00
	00		 call	 QWORD PTR __imp_?setstate@?$basic_ios@DU?$char_traits@D@std@@@std@@QEAAXH_N@Z
  00040	90		 npad	 1
  00041	48 8d 05 00 00
	00 00		 lea	 rax, $LN23@catch$1
  00048	48 83 c4 28	 add	 rsp, 40			; 00000028H
  0004c	5f		 pop	 rdi
  0004d	5d		 pop	 rbp
  0004e	c3		 ret	 0
  0004f	cc		 int	 3
?catch$1@?0???$?6U?$char_traits@D@std@@@std@@YAAEAV?$basic_ostream@DU?$char_traits@D@std@@@0@AEAV10@PEBD@Z@4HA ENDP ; `std::operator<<<std::char_traits<char> >'::`1'::catch$1
text$x	ENDS
; Function compile flags: /Odtp /RTCsu /ZI
;	COMDAT text$x
text$x	SEGMENT
_State$ = 4
_Count$ = 40
_Pad$ = 72
_Ok$ = 104
$T4 = 340
$T5 = 372
$T6 = 404
$T7 = 436
$T8 = 472
tv300 = 484
tv295 = 484
tv139 = 484
tv301 = 488
tv298 = 488
tv296 = 488
tv137 = 488
tv302 = 496
tv299 = 496
tv297 = 496
__$ArrayPad$ = 504
_Ostr$ = 544
_Val$ = 552
?dtor$0@?0???$?6U?$char_traits@D@std@@@std@@YAAEAV?$basic_ostream@DU?$char_traits@D@std@@@0@AEAV10@PEBD@Z@4HA PROC ; `std::operator<<<std::char_traits<char> >'::`1'::dtor$0
  00000	48 89 4c 24 08	 mov	 QWORD PTR [rsp+8], rcx
  00005	48 89 54 24 10	 mov	 QWORD PTR [rsp+16], rdx
  0000a	55		 push	 rbp
  0000b	57		 push	 rdi
  0000c	48 83 ec 28	 sub	 rsp, 40			; 00000028H
  00010	48 8d 6a 20	 lea	 rbp, QWORD PTR [rdx+32]
  00014	48 8d 4d 68	 lea	 rcx, QWORD PTR _Ok$[rbp]
  00018	e8 00 00 00 00	 call	 ??1sentry@?$basic_ostream@DU?$char_traits@D@std@@@std@@QEAA@XZ ; std::basic_ostream<char,std::char_traits<char> >::sentry::~sentry
  0001d	48 83 c4 28	 add	 rsp, 40			; 00000028H
  00021	5f		 pop	 rdi
  00022	5d		 pop	 rbp
  00023	c3		 ret	 0
?dtor$0@?0???$?6U?$char_traits@D@std@@@std@@YAAEAV?$basic_ostream@DU?$char_traits@D@std@@@0@AEAV10@PEBD@Z@4HA ENDP ; `std::operator<<<std::char_traits<char> >'::`1'::dtor$0
text$x	ENDS
; Function compile flags: /Odtp /RTCsu /ZI
;	COMDAT text$x
text$x	SEGMENT
_State$ = 4
_Count$ = 40
_Pad$ = 72
_Ok$ = 104
$T4 = 340
$T5 = 372
$T6 = 404
$T7 = 436
$T8 = 472
tv300 = 484
tv295 = 484
tv139 = 484
tv301 = 488
tv298 = 488
tv296 = 488
tv137 = 488
tv302 = 496
tv299 = 496
tv297 = 496
__$ArrayPad$ = 504
_Ostr$ = 544
_Val$ = 552
?catch$1@?0???$?6U?$char_traits@D@std@@@std@@YAAEAV?$basic_ostream@DU?$char_traits@D@std@@@0@AEAV10@PEBD@Z@4HA PROC ; `std::operator<<<std::char_traits<char> >'::`1'::catch$1

; 771  :         _CATCH_IO_(ios_base, _Ostr)

  00000	48 89 4c 24 08	 mov	 QWORD PTR [rsp+8], rcx
  00005	48 89 54 24 10	 mov	 QWORD PTR [rsp+16], rdx
  0000a	55		 push	 rbp
  0000b	57		 push	 rdi
  0000c	48 83 ec 28	 sub	 rsp, 40			; 00000028H
  00010	48 8d 6a 20	 lea	 rbp, QWORD PTR [rdx+32]
__catch$??$?6U?$char_traits@D@std@@@std@@YAAEAV?$basic_ostream@DU?$char_traits@D@std@@@0@AEAV10@PEBD@Z$0:
  00014	48 8b 85 20 02
	00 00		 mov	 rax, QWORD PTR _Ostr$[rbp]
  0001b	48 8b 00	 mov	 rax, QWORD PTR [rax]
  0001e	48 63 40 04	 movsxd	 rax, DWORD PTR [rax+4]
  00022	48 8b 8d 20 02
	00 00		 mov	 rcx, QWORD PTR _Ostr$[rbp]
  00029	48 03 c8	 add	 rcx, rax
  0002c	48 8b c1	 mov	 rax, rcx
  0002f	41 b0 01	 mov	 r8b, 1
  00032	ba 04 00 00 00	 mov	 edx, 4
  00037	48 8b c8	 mov	 rcx, rax
  0003a	ff 15 00 00 00
	00		 call	 QWORD PTR __imp_?setstate@?$basic_ios@DU?$char_traits@D@std@@@std@@QEAAXH_N@Z
  00040	90		 npad	 1
  00041	48 8d 05 00 00
	00 00		 lea	 rax, $LN23@catch$1
  00048	48 83 c4 28	 add	 rsp, 40			; 00000028H
  0004c	5f		 pop	 rdi
  0004d	5d		 pop	 rbp
  0004e	c3		 ret	 0
  0004f	cc		 int	 3
?catch$1@?0???$?6U?$char_traits@D@std@@@std@@YAAEAV?$basic_ostream@DU?$char_traits@D@std@@@0@AEAV10@PEBD@Z@4HA ENDP ; `std::operator<<<std::char_traits<char> >'::`1'::catch$1
text$x	ENDS
; Function compile flags: /Odtp /RTCsu /ZI
; File A:\Server\Projects\w3schools Cpp_v2\w3schools_cpp_course\line_printing.cpp
;	COMDAT ?calc@@YAHXZ
_TEXT	SEGMENT
x$ = 4
y$ = 36
sum$ = 68
__$ArrayPad$ = 280
?calc@@YAHXZ PROC					; calc, COMDAT

; 23   : int calc() {

$LN3:
  00000	40 55		 push	 rbp
  00002	57		 push	 rdi
  00003	48 81 ec 48 01
	00 00		 sub	 rsp, 328		; 00000148H
  0000a	48 8d 6c 24 20	 lea	 rbp, QWORD PTR [rsp+32]
  0000f	48 8b fc	 mov	 rdi, rsp
  00012	b9 52 00 00 00	 mov	 ecx, 82			; 00000052H
  00017	b8 cc cc cc cc	 mov	 eax, -858993460		; ccccccccH
  0001c	f3 ab		 rep stosd
  0001e	48 8b 05 00 00
	00 00		 mov	 rax, QWORD PTR __security_cookie
  00025	48 33 c5	 xor	 rax, rbp
  00028	48 89 85 18 01
	00 00		 mov	 QWORD PTR __$ArrayPad$[rbp], rax
  0002f	48 8d 0d 00 00
	00 00		 lea	 rcx, OFFSET FLAT:__2DA40AF6_line_printing@cpp
  00036	e8 00 00 00 00	 call	 __CheckForDebuggerJustMyCode

; 24   : 	int x, y;
; 25   : 	int sum;
; 26   : 
; 27   : 	cout << "Type a number: ";

  0003b	48 8d 15 00 00
	00 00		 lea	 rdx, OFFSET FLAT:??_C@_0BA@LDFHCECK@Type?5a?5number?3?5@
  00042	48 8b 0d 00 00
	00 00		 mov	 rcx, QWORD PTR __imp_?cout@std@@3V?$basic_ostream@DU?$char_traits@D@std@@@1@A
  00049	e8 00 00 00 00	 call	 ??$?6U?$char_traits@D@std@@@std@@YAAEAV?$basic_ostream@DU?$char_traits@D@std@@@0@AEAV10@PEBD@Z ; std::operator<<<std::char_traits<char> >

; 28   : 	cin >> x;

  0004e	48 8d 55 04	 lea	 rdx, QWORD PTR x$[rbp]
  00052	48 8b 0d 00 00
	00 00		 mov	 rcx, QWORD PTR __imp_?cin@std@@3V?$basic_istream@DU?$char_traits@D@std@@@1@A
  00059	ff 15 00 00 00
	00		 call	 QWORD PTR __imp_??5?$basic_istream@DU?$char_traits@D@std@@@std@@QEAAAEAV01@AEAH@Z

; 29   : 	cout << "Type another number: ";

  0005f	48 8d 15 00 00
	00 00		 lea	 rdx, OFFSET FLAT:??_C@_0BG@MLJOIFMK@Type?5another?5number?3?5@
  00066	48 8b 0d 00 00
	00 00		 mov	 rcx, QWORD PTR __imp_?cout@std@@3V?$basic_ostream@DU?$char_traits@D@std@@@1@A
  0006d	e8 00 00 00 00	 call	 ??$?6U?$char_traits@D@std@@@std@@YAAEAV?$basic_ostream@DU?$char_traits@D@std@@@0@AEAV10@PEBD@Z ; std::operator<<<std::char_traits<char> >

; 30   : 	cin >> y;

  00072	48 8d 55 24	 lea	 rdx, QWORD PTR y$[rbp]
  00076	48 8b 0d 00 00
	00 00		 mov	 rcx, QWORD PTR __imp_?cin@std@@3V?$basic_istream@DU?$char_traits@D@std@@@1@A
  0007d	ff 15 00 00 00
	00		 call	 QWORD PTR __imp_??5?$basic_istream@DU?$char_traits@D@std@@@std@@QEAAAEAV01@AEAH@Z

; 31   : 	sum = x + y;

  00083	8b 45 24	 mov	 eax, DWORD PTR y$[rbp]
  00086	8b 4d 04	 mov	 ecx, DWORD PTR x$[rbp]
  00089	03 c8		 add	 ecx, eax
  0008b	8b c1		 mov	 eax, ecx
  0008d	89 45 44	 mov	 DWORD PTR sum$[rbp], eax

; 32   : 	cout << "Sum is: " << sum;

  00090	48 8d 15 00 00
	00 00		 lea	 rdx, OFFSET FLAT:??_C@_08KIEHPKP@Sum?5is?3?5@
  00097	48 8b 0d 00 00
	00 00		 mov	 rcx, QWORD PTR __imp_?cout@std@@3V?$basic_ostream@DU?$char_traits@D@std@@@1@A
  0009e	e8 00 00 00 00	 call	 ??$?6U?$char_traits@D@std@@@std@@YAAEAV?$basic_ostream@DU?$char_traits@D@std@@@0@AEAV10@PEBD@Z ; std::operator<<<std::char_traits<char> >
  000a3	8b 55 44	 mov	 edx, DWORD PTR sum$[rbp]
  000a6	48 8b c8	 mov	 rcx, rax
  000a9	ff 15 00 00 00
	00		 call	 QWORD PTR __imp_??6?$basic_ostream@DU?$char_traits@D@std@@@std@@QEAAAEAV01@H@Z

; 33   : 	return 0;\

  000af	33 c0		 xor	 eax, eax

; 34   : }

  000b1	8b f8		 mov	 edi, eax
  000b3	48 8d 4d e0	 lea	 rcx, QWORD PTR [rbp-32]
  000b7	48 8d 15 00 00
	00 00		 lea	 rdx, OFFSET FLAT:?calc@@YAHXZ$rtcFrameData
  000be	e8 00 00 00 00	 call	 _RTC_CheckStackVars
  000c3	8b c7		 mov	 eax, edi
  000c5	48 8b 8d 18 01
	00 00		 mov	 rcx, QWORD PTR __$ArrayPad$[rbp]
  000cc	48 33 cd	 xor	 rcx, rbp
  000cf	e8 00 00 00 00	 call	 __security_check_cookie
  000d4	48 8d a5 28 01
	00 00		 lea	 rsp, QWORD PTR [rbp+296]
  000db	5f		 pop	 rdi
  000dc	5d		 pop	 rbp
  000dd	c3		 ret	 0
?calc@@YAHXZ ENDP					; calc
_TEXT	ENDS
; Function compile flags: /Odtp /RTCsu /ZI
; File A:\Server\Projects\w3schools Cpp_v2\w3schools_cpp_course\line_printing.cpp
;	COMDAT ?demomain@@YAHXZ
_TEXT	SEGMENT
?demomain@@YAHXZ PROC					; demomain, COMDAT

; 7    : int demomain() { return 0; } // an example of a comment at the end of the line

$LN3:
  00000	40 55		 push	 rbp
  00002	57		 push	 rdi
  00003	48 81 ec e8 00
	00 00		 sub	 rsp, 232		; 000000e8H
  0000a	48 8d 6c 24 20	 lea	 rbp, QWORD PTR [rsp+32]
  0000f	48 8b fc	 mov	 rdi, rsp
  00012	b9 3a 00 00 00	 mov	 ecx, 58			; 0000003aH
  00017	b8 cc cc cc cc	 mov	 eax, -858993460		; ccccccccH
  0001c	f3 ab		 rep stosd
  0001e	48 8d 0d 00 00
	00 00		 lea	 rcx, OFFSET FLAT:__2DA40AF6_line_printing@cpp
  00025	e8 00 00 00 00	 call	 __CheckForDebuggerJustMyCode
  0002a	33 c0		 xor	 eax, eax
  0002c	48 8d a5 c8 00
	00 00		 lea	 rsp, QWORD PTR [rbp+200]
  00033	5f		 pop	 rdi
  00034	5d		 pop	 rbp
  00035	c3		 ret	 0
?demomain@@YAHXZ ENDP					; demomain
_TEXT	ENDS
; Function compile flags: /Odtp /RTCsu /ZI
;	COMDAT ??1?$_Compressed_pair@V?$allocator@D@std@@V?$_String_val@U?$_Simple_types@D@std@@@2@$00@std@@QEAA@XZ
_TEXT	SEGMENT
this$ = 224
??1?$_Compressed_pair@V?$allocator@D@std@@V?$_String_val@U?$_Simple_types@D@std@@@2@$00@std@@QEAA@XZ PROC ; std::_Compressed_pair<std::allocator<char>,std::_String_val<std::_Simple_types<char> >,1>::~_Compressed_pair<std::allocator<char>,std::_String_val<std::_Simple_types<char> >,1>, COMDAT
$LN3:
  00000	48 89 4c 24 08	 mov	 QWORD PTR [rsp+8], rcx
  00005	55		 push	 rbp
  00006	57		 push	 rdi
  00007	48 81 ec e8 00
	00 00		 sub	 rsp, 232		; 000000e8H
  0000e	48 8d 6c 24 20	 lea	 rbp, QWORD PTR [rsp+32]
  00013	48 8b fc	 mov	 rdi, rsp
  00016	b9 3a 00 00 00	 mov	 ecx, 58			; 0000003aH
  0001b	b8 cc cc cc cc	 mov	 eax, -858993460		; ccccccccH
  00020	f3 ab		 rep stosd
  00022	48 8b 8c 24 08
	01 00 00	 mov	 rcx, QWORD PTR [rsp+264]
  0002a	48 8b 85 e0 00
	00 00		 mov	 rax, QWORD PTR this$[rbp]
  00031	48 8b c8	 mov	 rcx, rax
  00034	e8 00 00 00 00	 call	 ??1?$_String_val@U?$_Simple_types@D@std@@@std@@QEAA@XZ
  00039	48 8d a5 c8 00
	00 00		 lea	 rsp, QWORD PTR [rbp+200]
  00040	5f		 pop	 rdi
  00041	5d		 pop	 rbp
  00042	c3		 ret	 0
??1?$_Compressed_pair@V?$allocator@D@std@@V?$_String_val@U?$_Simple_types@D@std@@@2@$00@std@@QEAA@XZ ENDP ; std::_Compressed_pair<std::allocator<char>,std::_String_val<std::_Simple_types<char> >,1>::~_Compressed_pair<std::allocator<char>,std::_String_val<std::_Simple_types<char> >,1>
_TEXT	ENDS
; Function compile flags: /Odtp /RTCsu /ZI
; File C:\Program Files (x86)\Microsoft Visual Studio\2019\Community\VC\Tools\MSVC\14.27.29110\include\xmemory
;	COMDAT ?_Get_first@?$_Compressed_pair@V?$allocator@D@std@@V?$_String_val@U?$_Simple_types@D@std@@@2@$00@std@@QEBAAEBV?$allocator@D@2@XZ
_TEXT	SEGMENT
this$ = 224
?_Get_first@?$_Compressed_pair@V?$allocator@D@std@@V?$_String_val@U?$_Simple_types@D@std@@@2@$00@std@@QEBAAEBV?$allocator@D@2@XZ PROC ; std::_Compressed_pair<std::allocator<char>,std::_String_val<std::_Simple_types<char> >,1>::_Get_first, COMDAT

; 1347 :     constexpr const _Ty1& _Get_first() const noexcept {

$LN3:
  00000	48 89 4c 24 08	 mov	 QWORD PTR [rsp+8], rcx
  00005	55		 push	 rbp
  00006	57		 push	 rdi
  00007	48 81 ec e8 00
	00 00		 sub	 rsp, 232		; 000000e8H
  0000e	48 8d 6c 24 20	 lea	 rbp, QWORD PTR [rsp+32]
  00013	48 8b fc	 mov	 rdi, rsp
  00016	b9 3a 00 00 00	 mov	 ecx, 58			; 0000003aH
  0001b	b8 cc cc cc cc	 mov	 eax, -858993460		; ccccccccH
  00020	f3 ab		 rep stosd
  00022	48 8b 8c 24 08
	01 00 00	 mov	 rcx, QWORD PTR [rsp+264]
  0002a	48 8d 0d 00 00
	00 00		 lea	 rcx, OFFSET FLAT:__A58979FC_xmemory
  00031	e8 00 00 00 00	 call	 __CheckForDebuggerJustMyCode

; 1348 :         return *this;

  00036	48 8b 85 e0 00
	00 00		 mov	 rax, QWORD PTR this$[rbp]

; 1349 :     }

  0003d	48 8d a5 c8 00
	00 00		 lea	 rsp, QWORD PTR [rbp+200]
  00044	5f		 pop	 rdi
  00045	5d		 pop	 rbp
  00046	c3		 ret	 0
?_Get_first@?$_Compressed_pair@V?$allocator@D@std@@V?$_String_val@U?$_Simple_types@D@std@@@2@$00@std@@QEBAAEBV?$allocator@D@2@XZ ENDP ; std::_Compressed_pair<std::allocator<char>,std::_String_val<std::_Simple_types<char> >,1>::_Get_first
_TEXT	ENDS
; Function compile flags: /Odtp /RTCsu /ZI
; File C:\Program Files (x86)\Microsoft Visual Studio\2019\Community\VC\Tools\MSVC\14.27.29110\include\xmemory
;	COMDAT ?_Get_first@?$_Compressed_pair@V?$allocator@D@std@@V?$_String_val@U?$_Simple_types@D@std@@@2@$00@std@@QEAAAEAV?$allocator@D@2@XZ
_TEXT	SEGMENT
this$ = 224
?_Get_first@?$_Compressed_pair@V?$allocator@D@std@@V?$_String_val@U?$_Simple_types@D@std@@@2@$00@std@@QEAAAEAV?$allocator@D@2@XZ PROC ; std::_Compressed_pair<std::allocator<char>,std::_String_val<std::_Simple_types<char> >,1>::_Get_first, COMDAT

; 1343 :     constexpr _Ty1& _Get_first() noexcept {

$LN3:
  00000	48 89 4c 24 08	 mov	 QWORD PTR [rsp+8], rcx
  00005	55		 push	 rbp
  00006	57		 push	 rdi
  00007	48 81 ec e8 00
	00 00		 sub	 rsp, 232		; 000000e8H
  0000e	48 8d 6c 24 20	 lea	 rbp, QWORD PTR [rsp+32]
  00013	48 8b fc	 mov	 rdi, rsp
  00016	b9 3a 00 00 00	 mov	 ecx, 58			; 0000003aH
  0001b	b8 cc cc cc cc	 mov	 eax, -858993460		; ccccccccH
  00020	f3 ab		 rep stosd
  00022	48 8b 8c 24 08
	01 00 00	 mov	 rcx, QWORD PTR [rsp+264]
  0002a	48 8d 0d 00 00
	00 00		 lea	 rcx, OFFSET FLAT:__A58979FC_xmemory
  00031	e8 00 00 00 00	 call	 __CheckForDebuggerJustMyCode

; 1344 :         return *this;

  00036	48 8b 85 e0 00
	00 00		 mov	 rax, QWORD PTR this$[rbp]

; 1345 :     }

  0003d	48 8d a5 c8 00
	00 00		 lea	 rsp, QWORD PTR [rbp+200]
  00044	5f		 pop	 rdi
  00045	5d		 pop	 rbp
  00046	c3		 ret	 0
?_Get_first@?$_Compressed_pair@V?$allocator@D@std@@V?$_String_val@U?$_Simple_types@D@std@@@2@$00@std@@QEAAAEAV?$allocator@D@2@XZ ENDP ; std::_Compressed_pair<std::allocator<char>,std::_String_val<std::_Simple_types<char> >,1>::_Get_first
_TEXT	ENDS
; Function compile flags: /Odtp /RTCsu /ZI
; File C:\Program Files (x86)\Microsoft Visual Studio\2019\Community\VC\Tools\MSVC\14.27.29110\include\xstring
;	COMDAT ?_Getal@?$basic_string@DU?$char_traits@D@std@@V?$allocator@D@2@@std@@AEBAAEBV?$allocator@D@2@XZ
_TEXT	SEGMENT
this$ = 224
?_Getal@?$basic_string@DU?$char_traits@D@std@@V?$allocator@D@2@@std@@AEBAAEBV?$allocator@D@2@XZ PROC ; std::basic_string<char,std::char_traits<char>,std::allocator<char> >::_Getal, COMDAT

; 4328 :     const _Alty& _Getal() const noexcept {

$LN3:
  00000	48 89 4c 24 08	 mov	 QWORD PTR [rsp+8], rcx
  00005	55		 push	 rbp
  00006	57		 push	 rdi
  00007	48 81 ec e8 00
	00 00		 sub	 rsp, 232		; 000000e8H
  0000e	48 8d 6c 24 20	 lea	 rbp, QWORD PTR [rsp+32]
  00013	48 8b fc	 mov	 rdi, rsp
  00016	b9 3a 00 00 00	 mov	 ecx, 58			; 0000003aH
  0001b	b8 cc cc cc cc	 mov	 eax, -858993460		; ccccccccH
  00020	f3 ab		 rep stosd
  00022	48 8b 8c 24 08
	01 00 00	 mov	 rcx, QWORD PTR [rsp+264]
  0002a	48 8d 0d 00 00
	00 00		 lea	 rcx, OFFSET FLAT:__D15AFF60_xstring
  00031	e8 00 00 00 00	 call	 __CheckForDebuggerJustMyCode

; 4329 :         return _Mypair._Get_first();

  00036	48 8b 85 e0 00
	00 00		 mov	 rax, QWORD PTR this$[rbp]
  0003d	48 8b c8	 mov	 rcx, rax
  00040	e8 00 00 00 00	 call	 ?_Get_first@?$_Compressed_pair@V?$allocator@D@std@@V?$_String_val@U?$_Simple_types@D@std@@@2@$00@std@@QEBAAEBV?$allocator@D@2@XZ ; std::_Compressed_pair<std::allocator<char>,std::_String_val<std::_Simple_types<char> >,1>::_Get_first
  00045	90		 npad	 1

; 4330 :     }

  00046	48 8d a5 c8 00
	00 00		 lea	 rsp, QWORD PTR [rbp+200]
  0004d	5f		 pop	 rdi
  0004e	5d		 pop	 rbp
  0004f	c3		 ret	 0
?_Getal@?$basic_string@DU?$char_traits@D@std@@V?$allocator@D@2@@std@@AEBAAEBV?$allocator@D@2@XZ ENDP ; std::basic_string<char,std::char_traits<char>,std::allocator<char> >::_Getal
_TEXT	ENDS
; Function compile flags: /Odtp /RTCsu /ZI
; File C:\Program Files (x86)\Microsoft Visual Studio\2019\Community\VC\Tools\MSVC\14.27.29110\include\xstring
;	COMDAT ?_Getal@?$basic_string@DU?$char_traits@D@std@@V?$allocator@D@2@@std@@AEAAAEAV?$allocator@D@2@XZ
_TEXT	SEGMENT
this$ = 224
?_Getal@?$basic_string@DU?$char_traits@D@std@@V?$allocator@D@2@@std@@AEAAAEAV?$allocator@D@2@XZ PROC ; std::basic_string<char,std::char_traits<char>,std::allocator<char> >::_Getal, COMDAT

; 4324 :     _Alty& _Getal() noexcept {

$LN3:
  00000	48 89 4c 24 08	 mov	 QWORD PTR [rsp+8], rcx
  00005	55		 push	 rbp
  00006	57		 push	 rdi
  00007	48 81 ec e8 00
	00 00		 sub	 rsp, 232		; 000000e8H
  0000e	48 8d 6c 24 20	 lea	 rbp, QWORD PTR [rsp+32]
  00013	48 8b fc	 mov	 rdi, rsp
  00016	b9 3a 00 00 00	 mov	 ecx, 58			; 0000003aH
  0001b	b8 cc cc cc cc	 mov	 eax, -858993460		; ccccccccH
  00020	f3 ab		 rep stosd
  00022	48 8b 8c 24 08
	01 00 00	 mov	 rcx, QWORD PTR [rsp+264]
  0002a	48 8d 0d 00 00
	00 00		 lea	 rcx, OFFSET FLAT:__D15AFF60_xstring
  00031	e8 00 00 00 00	 call	 __CheckForDebuggerJustMyCode

; 4325 :         return _Mypair._Get_first();

  00036	48 8b 85 e0 00
	00 00		 mov	 rax, QWORD PTR this$[rbp]
  0003d	48 8b c8	 mov	 rcx, rax
  00040	e8 00 00 00 00	 call	 ?_Get_first@?$_Compressed_pair@V?$allocator@D@std@@V?$_String_val@U?$_Simple_types@D@std@@@2@$00@std@@QEAAAEAV?$allocator@D@2@XZ ; std::_Compressed_pair<std::allocator<char>,std::_String_val<std::_Simple_types<char> >,1>::_Get_first
  00045	90		 npad	 1

; 4326 :     }

  00046	48 8d a5 c8 00
	00 00		 lea	 rsp, QWORD PTR [rbp+200]
  0004d	5f		 pop	 rdi
  0004e	5d		 pop	 rbp
  0004f	c3		 ret	 0
?_Getal@?$basic_string@DU?$char_traits@D@std@@V?$allocator@D@2@@std@@AEAAAEAV?$allocator@D@2@XZ ENDP ; std::basic_string<char,std::char_traits<char>,std::allocator<char> >::_Getal
_TEXT	ENDS
; Function compile flags: /Odtp /RTCsu /ZI
; File C:\Program Files (x86)\Microsoft Visual Studio\2019\Community\VC\Tools\MSVC\14.27.29110\include\xstring
;	COMDAT ?_Tidy_deallocate@?$basic_string@DU?$char_traits@D@std@@V?$allocator@D@2@@std@@AEAAXXZ
_TEXT	SEGMENT
_Ptr$1 = 8
_Al$2 = 40
$T3 = 260
this$ = 320
?_Tidy_deallocate@?$basic_string@DU?$char_traits@D@std@@V?$allocator@D@2@@std@@AEAAXXZ PROC ; std::basic_string<char,std::char_traits<char>,std::allocator<char> >::_Tidy_deallocate, COMDAT

; 4299 :     void _Tidy_deallocate() noexcept { // initialize buffer, deallocating any storage

$LN4:
  00000	48 89 4c 24 08	 mov	 QWORD PTR [rsp+8], rcx
  00005	55		 push	 rbp
  00006	57		 push	 rdi
  00007	48 81 ec 48 01
	00 00		 sub	 rsp, 328		; 00000148H
  0000e	48 8d 6c 24 20	 lea	 rbp, QWORD PTR [rsp+32]
  00013	48 8b fc	 mov	 rdi, rsp
  00016	b9 52 00 00 00	 mov	 ecx, 82			; 00000052H
  0001b	b8 cc cc cc cc	 mov	 eax, -858993460		; ccccccccH
  00020	f3 ab		 rep stosd
  00022	48 8b 8c 24 68
	01 00 00	 mov	 rcx, QWORD PTR [rsp+360]
  0002a	48 8d 0d 00 00
	00 00		 lea	 rcx, OFFSET FLAT:__D15AFF60_xstring
  00031	e8 00 00 00 00	 call	 __CheckForDebuggerJustMyCode

; 4300 :         _Mypair._Myval2._Orphan_all();

  00036	48 8b 85 40 01
	00 00		 mov	 rax, QWORD PTR this$[rbp]
  0003d	48 8b c8	 mov	 rcx, rax
  00040	e8 00 00 00 00	 call	 ?_Orphan_all@_Container_base12@std@@QEAAXXZ ; std::_Container_base12::_Orphan_all

; 4301 :         if (_Mypair._Myval2._Large_string_engaged()) {

  00045	48 8b 85 40 01
	00 00		 mov	 rax, QWORD PTR this$[rbp]
  0004c	48 8b c8	 mov	 rcx, rax
  0004f	e8 00 00 00 00	 call	 ?_Large_string_engaged@?$_String_val@U?$_Simple_types@D@std@@@std@@QEBA_NXZ ; std::_String_val<std::_Simple_types<char> >::_Large_string_engaged
  00054	0f b6 c0	 movzx	 eax, al
  00057	85 c0		 test	 eax, eax
  00059	74 50		 je	 SHORT $LN2@Tidy_deall

; 4302 :             const pointer _Ptr = _Mypair._Myval2._Bx._Ptr;

  0005b	48 8b 85 40 01
	00 00		 mov	 rax, QWORD PTR this$[rbp]
  00062	48 8b 40 08	 mov	 rax, QWORD PTR [rax+8]
  00066	48 89 45 08	 mov	 QWORD PTR _Ptr$1[rbp], rax

; 4303 :             auto& _Al          = _Getal();

  0006a	48 8b 8d 40 01
	00 00		 mov	 rcx, QWORD PTR this$[rbp]
  00071	e8 00 00 00 00	 call	 ?_Getal@?$basic_string@DU?$char_traits@D@std@@V?$allocator@D@2@@std@@AEAAAEAV?$allocator@D@2@XZ ; std::basic_string<char,std::char_traits<char>,std::allocator<char> >::_Getal
  00076	48 89 45 28	 mov	 QWORD PTR _Al$2[rbp], rax

; 4304 :             _Destroy_in_place(_Mypair._Myval2._Bx._Ptr);

  0007a	48 8b 85 40 01
	00 00		 mov	 rax, QWORD PTR this$[rbp]
  00081	48 83 c0 08	 add	 rax, 8
  00085	48 8b c8	 mov	 rcx, rax
  00088	e8 00 00 00 00	 call	 ??$_Destroy_in_place@PEAD@std@@YAXAEAPEAD@Z ; std::_Destroy_in_place<char *>

; 4305 :             _Al.deallocate(_Ptr, _Mypair._Myval2._Myres + 1);

  0008d	48 8b 85 40 01
	00 00		 mov	 rax, QWORD PTR this$[rbp]
  00094	48 8b 40 20	 mov	 rax, QWORD PTR [rax+32]
  00098	48 ff c0	 inc	 rax
  0009b	4c 8b c0	 mov	 r8, rax
  0009e	48 8b 55 08	 mov	 rdx, QWORD PTR _Ptr$1[rbp]
  000a2	48 8b 4d 28	 mov	 rcx, QWORD PTR _Al$2[rbp]
  000a6	e8 00 00 00 00	 call	 ?deallocate@?$allocator@D@std@@QEAAXQEAD_K@Z ; std::allocator<char>::deallocate
$LN2@Tidy_deall:

; 4306 :         }
; 4307 : 
; 4308 :         _Mypair._Myval2._Mysize = 0;

  000ab	48 8b 85 40 01
	00 00		 mov	 rax, QWORD PTR this$[rbp]
  000b2	48 c7 40 18 00
	00 00 00	 mov	 QWORD PTR [rax+24], 0

; 4309 :         _Mypair._Myval2._Myres  = _BUF_SIZE - 1;

  000ba	48 8b 85 40 01
	00 00		 mov	 rax, QWORD PTR this$[rbp]
  000c1	48 c7 40 20 0f
	00 00 00	 mov	 QWORD PTR [rax+32], 15

; 4310 :         // the _Traits::assign is last so the codegen doesn't think the char write can alias this
; 4311 :         _Traits::assign(_Mypair._Myval2._Bx._Buf[0], _Elem());

  000c9	c6 85 04 01 00
	00 00		 mov	 BYTE PTR $T3[rbp], 0
  000d0	b8 01 00 00 00	 mov	 eax, 1
  000d5	48 6b c0 00	 imul	 rax, rax, 0
  000d9	48 8b 8d 40 01
	00 00		 mov	 rcx, QWORD PTR this$[rbp]
  000e0	48 8d 44 01 08	 lea	 rax, QWORD PTR [rcx+rax+8]
  000e5	48 8d 95 04 01
	00 00		 lea	 rdx, QWORD PTR $T3[rbp]
  000ec	48 8b c8	 mov	 rcx, rax
  000ef	e8 00 00 00 00	 call	 ?assign@?$_Narrow_char_traits@DH@std@@SAXAEADAEBD@Z ; std::_Narrow_char_traits<char,int>::assign
  000f4	90		 npad	 1

; 4312 :     }

  000f5	48 8d a5 28 01
	00 00		 lea	 rsp, QWORD PTR [rbp+296]
  000fc	5f		 pop	 rdi
  000fd	5d		 pop	 rbp
  000fe	c3		 ret	 0
?_Tidy_deallocate@?$basic_string@DU?$char_traits@D@std@@V?$allocator@D@2@@std@@AEAAXXZ ENDP ; std::basic_string<char,std::char_traits<char>,std::allocator<char> >::_Tidy_deallocate
_TEXT	ENDS
; Function compile flags: /Odtp /RTCsu /ZI
; File C:\Program Files (x86)\Microsoft Visual Studio\2019\Community\VC\Tools\MSVC\14.27.29110\include\xstring
;	COMDAT ?_Tidy_init@?$basic_string@DU?$char_traits@D@std@@V?$allocator@D@2@@std@@AEAAXXZ
_TEXT	SEGMENT
$T1 = 196
this$ = 256
?_Tidy_init@?$basic_string@DU?$char_traits@D@std@@V?$allocator@D@2@@std@@AEAAXXZ PROC ; std::basic_string<char,std::char_traits<char>,std::allocator<char> >::_Tidy_init, COMDAT

; 4292 :     void _Tidy_init() noexcept { // initialize basic_string data members

$LN3:
  00000	48 89 4c 24 08	 mov	 QWORD PTR [rsp+8], rcx
  00005	55		 push	 rbp
  00006	57		 push	 rdi
  00007	48 81 ec 08 01
	00 00		 sub	 rsp, 264		; 00000108H
  0000e	48 8d 6c 24 20	 lea	 rbp, QWORD PTR [rsp+32]
  00013	48 8b fc	 mov	 rdi, rsp
  00016	b9 42 00 00 00	 mov	 ecx, 66			; 00000042H
  0001b	b8 cc cc cc cc	 mov	 eax, -858993460		; ccccccccH
  00020	f3 ab		 rep stosd
  00022	48 8b 8c 24 28
	01 00 00	 mov	 rcx, QWORD PTR [rsp+296]
  0002a	48 8d 0d 00 00
	00 00		 lea	 rcx, OFFSET FLAT:__D15AFF60_xstring
  00031	e8 00 00 00 00	 call	 __CheckForDebuggerJustMyCode

; 4293 :         _Mypair._Myval2._Mysize = 0;

  00036	48 8b 85 00 01
	00 00		 mov	 rax, QWORD PTR this$[rbp]
  0003d	48 c7 40 18 00
	00 00 00	 mov	 QWORD PTR [rax+24], 0

; 4294 :         _Mypair._Myval2._Myres  = _BUF_SIZE - 1;

  00045	48 8b 85 00 01
	00 00		 mov	 rax, QWORD PTR this$[rbp]
  0004c	48 c7 40 20 0f
	00 00 00	 mov	 QWORD PTR [rax+32], 15

; 4295 :         // the _Traits::assign is last so the codegen doesn't think the char write can alias this
; 4296 :         _Traits::assign(_Mypair._Myval2._Bx._Buf[0], _Elem());

  00054	c6 85 c4 00 00
	00 00		 mov	 BYTE PTR $T1[rbp], 0
  0005b	b8 01 00 00 00	 mov	 eax, 1
  00060	48 6b c0 00	 imul	 rax, rax, 0
  00064	48 8b 8d 00 01
	00 00		 mov	 rcx, QWORD PTR this$[rbp]
  0006b	48 8d 44 01 08	 lea	 rax, QWORD PTR [rcx+rax+8]
  00070	48 8d 95 c4 00
	00 00		 lea	 rdx, QWORD PTR $T1[rbp]
  00077	48 8b c8	 mov	 rcx, rax
  0007a	e8 00 00 00 00	 call	 ?assign@?$_Narrow_char_traits@DH@std@@SAXAEADAEBD@Z ; std::_Narrow_char_traits<char,int>::assign
  0007f	90		 npad	 1

; 4297 :     }

  00080	48 8d a5 e8 00
	00 00		 lea	 rsp, QWORD PTR [rbp+232]
  00087	5f		 pop	 rdi
  00088	5d		 pop	 rbp
  00089	c3		 ret	 0
?_Tidy_init@?$basic_string@DU?$char_traits@D@std@@V?$allocator@D@2@@std@@AEAAXXZ ENDP ; std::basic_string<char,std::char_traits<char>,std::allocator<char> >::_Tidy_init
_TEXT	ENDS
; Function compile flags: /Odtp /RTCsu /ZI
; File C:\Program Files (x86)\Microsoft Visual Studio\2019\Community\VC\Tools\MSVC\14.27.29110\include\xstring
;	COMDAT ?_Calculate_growth@?$basic_string@DU?$char_traits@D@std@@V?$allocator@D@2@@std@@AEBA_K_K@Z
_TEXT	SEGMENT
this$ = 224
_Requested$ = 232
?_Calculate_growth@?$basic_string@DU?$char_traits@D@std@@V?$allocator@D@2@@std@@AEBA_K_K@Z PROC ; std::basic_string<char,std::char_traits<char>,std::allocator<char> >::_Calculate_growth, COMDAT

; 4213 :     _NODISCARD size_type _Calculate_growth(const size_type _Requested) const noexcept {

$LN3:
  00000	48 89 54 24 10	 mov	 QWORD PTR [rsp+16], rdx
  00005	48 89 4c 24 08	 mov	 QWORD PTR [rsp+8], rcx
  0000a	55		 push	 rbp
  0000b	57		 push	 rdi
  0000c	48 81 ec e8 00
	00 00		 sub	 rsp, 232		; 000000e8H
  00013	48 8d 6c 24 20	 lea	 rbp, QWORD PTR [rsp+32]
  00018	48 8b fc	 mov	 rdi, rsp
  0001b	b9 3a 00 00 00	 mov	 ecx, 58			; 0000003aH
  00020	b8 cc cc cc cc	 mov	 eax, -858993460		; ccccccccH
  00025	f3 ab		 rep stosd
  00027	48 8b 8c 24 08
	01 00 00	 mov	 rcx, QWORD PTR [rsp+264]
  0002f	48 8d 0d 00 00
	00 00		 lea	 rcx, OFFSET FLAT:__D15AFF60_xstring
  00036	e8 00 00 00 00	 call	 __CheckForDebuggerJustMyCode

; 4214 :         return _Calculate_growth(_Requested, _Mypair._Myval2._Myres, max_size());

  0003b	48 8b 8d e0 00
	00 00		 mov	 rcx, QWORD PTR this$[rbp]
  00042	e8 00 00 00 00	 call	 ?max_size@?$basic_string@DU?$char_traits@D@std@@V?$allocator@D@2@@std@@QEBA_KXZ ; std::basic_string<char,std::char_traits<char>,std::allocator<char> >::max_size
  00047	4c 8b c0	 mov	 r8, rax
  0004a	48 8b 85 e0 00
	00 00		 mov	 rax, QWORD PTR this$[rbp]
  00051	48 8b 50 20	 mov	 rdx, QWORD PTR [rax+32]
  00055	48 8b 8d e8 00
	00 00		 mov	 rcx, QWORD PTR _Requested$[rbp]
  0005c	e8 00 00 00 00	 call	 ?_Calculate_growth@?$basic_string@DU?$char_traits@D@std@@V?$allocator@D@2@@std@@CA_K_K00@Z ; std::basic_string<char,std::char_traits<char>,std::allocator<char> >::_Calculate_growth
  00061	90		 npad	 1

; 4215 :     }

  00062	48 8d a5 c8 00
	00 00		 lea	 rsp, QWORD PTR [rbp+200]
  00069	5f		 pop	 rdi
  0006a	5d		 pop	 rbp
  0006b	c3		 ret	 0
?_Calculate_growth@?$basic_string@DU?$char_traits@D@std@@V?$allocator@D@2@@std@@AEBA_K_K@Z ENDP ; std::basic_string<char,std::char_traits<char>,std::allocator<char> >::_Calculate_growth
_TEXT	ENDS
; Function compile flags: /Odtp /RTCsu /ZI
; File C:\Program Files (x86)\Microsoft Visual Studio\2019\Community\VC\Tools\MSVC\14.27.29110\include\xstring
;	COMDAT ?_Calculate_growth@?$basic_string@DU?$char_traits@D@std@@V?$allocator@D@2@@std@@CA_K_K00@Z
_TEXT	SEGMENT
_Masked$ = 8
$T4 = 232
__$ArrayPad$ = 248
_Requested$ = 288
_Old$ = 296
_Max$ = 304
?_Calculate_growth@?$basic_string@DU?$char_traits@D@std@@V?$allocator@D@2@@std@@CA_K_K00@Z PROC ; std::basic_string<char,std::char_traits<char>,std::allocator<char> >::_Calculate_growth, COMDAT

; 4200 :         const size_type _Requested, const size_type _Old, const size_type _Max) noexcept {

$LN5:
  00000	4c 89 44 24 18	 mov	 QWORD PTR [rsp+24], r8
  00005	48 89 54 24 10	 mov	 QWORD PTR [rsp+16], rdx
  0000a	48 89 4c 24 08	 mov	 QWORD PTR [rsp+8], rcx
  0000f	55		 push	 rbp
  00010	57		 push	 rdi
  00011	48 81 ec 28 01
	00 00		 sub	 rsp, 296		; 00000128H
  00018	48 8d 6c 24 20	 lea	 rbp, QWORD PTR [rsp+32]
  0001d	48 8b fc	 mov	 rdi, rsp
  00020	b9 4a 00 00 00	 mov	 ecx, 74			; 0000004aH
  00025	b8 cc cc cc cc	 mov	 eax, -858993460		; ccccccccH
  0002a	f3 ab		 rep stosd
  0002c	48 8b 8c 24 48
	01 00 00	 mov	 rcx, QWORD PTR [rsp+328]
  00034	48 8b 05 00 00
	00 00		 mov	 rax, QWORD PTR __security_cookie
  0003b	48 33 c5	 xor	 rax, rbp
  0003e	48 89 85 f8 00
	00 00		 mov	 QWORD PTR __$ArrayPad$[rbp], rax
  00045	48 8d 0d 00 00
	00 00		 lea	 rcx, OFFSET FLAT:__D15AFF60_xstring
  0004c	e8 00 00 00 00	 call	 __CheckForDebuggerJustMyCode

; 4201 :         const size_type _Masked = _Requested | _ALLOC_MASK;

  00051	48 8b 85 20 01
	00 00		 mov	 rax, QWORD PTR _Requested$[rbp]
  00058	48 83 c8 0f	 or	 rax, 15
  0005c	48 89 45 08	 mov	 QWORD PTR _Masked$[rbp], rax

; 4202 :         if (_Masked > _Max) { // the mask overflows, settle for max_size()

  00060	48 8b 85 30 01
	00 00		 mov	 rax, QWORD PTR _Max$[rbp]
  00067	48 39 45 08	 cmp	 QWORD PTR _Masked$[rbp], rax
  0006b	76 09		 jbe	 SHORT $LN2@Calculate_

; 4203 :             return _Max;

  0006d	48 8b 85 30 01
	00 00		 mov	 rax, QWORD PTR _Max$[rbp]
  00074	eb 68		 jmp	 SHORT $LN1@Calculate_
$LN2@Calculate_:

; 4204 :         }
; 4205 : 
; 4206 :         if (_Old > _Max - _Old / 2) { // similarly, geometric overflows

  00076	33 d2		 xor	 edx, edx
  00078	48 8b 85 28 01
	00 00		 mov	 rax, QWORD PTR _Old$[rbp]
  0007f	b9 02 00 00 00	 mov	 ecx, 2
  00084	48 f7 f1	 div	 rcx
  00087	48 8b 8d 30 01
	00 00		 mov	 rcx, QWORD PTR _Max$[rbp]
  0008e	48 2b c8	 sub	 rcx, rax
  00091	48 8b c1	 mov	 rax, rcx
  00094	48 39 85 28 01
	00 00		 cmp	 QWORD PTR _Old$[rbp], rax
  0009b	76 09		 jbe	 SHORT $LN3@Calculate_

; 4207 :             return _Max;

  0009d	48 8b 85 30 01
	00 00		 mov	 rax, QWORD PTR _Max$[rbp]
  000a4	eb 38		 jmp	 SHORT $LN1@Calculate_
$LN3@Calculate_:

; 4208 :         }
; 4209 : 
; 4210 :         return (_STD max)(_Masked, _Old + _Old / 2);

  000a6	33 d2		 xor	 edx, edx
  000a8	48 8b 85 28 01
	00 00		 mov	 rax, QWORD PTR _Old$[rbp]
  000af	b9 02 00 00 00	 mov	 ecx, 2
  000b4	48 f7 f1	 div	 rcx
  000b7	48 8b 8d 28 01
	00 00		 mov	 rcx, QWORD PTR _Old$[rbp]
  000be	48 03 c8	 add	 rcx, rax
  000c1	48 8b c1	 mov	 rax, rcx
  000c4	48 89 85 e8 00
	00 00		 mov	 QWORD PTR $T4[rbp], rax
  000cb	48 8d 95 e8 00
	00 00		 lea	 rdx, QWORD PTR $T4[rbp]
  000d2	48 8d 4d 08	 lea	 rcx, QWORD PTR _Masked$[rbp]
  000d6	e8 00 00 00 00	 call	 ??$max@_K@std@@YAAEB_KAEB_K0@Z ; std::max<unsigned __int64>
  000db	48 8b 00	 mov	 rax, QWORD PTR [rax]
$LN1@Calculate_:

; 4211 :     }

  000de	48 8b f8	 mov	 rdi, rax
  000e1	48 8d 4d e0	 lea	 rcx, QWORD PTR [rbp-32]
  000e5	48 8d 15 00 00
	00 00		 lea	 rdx, OFFSET FLAT:?_Calculate_growth@?$basic_string@DU?$char_traits@D@std@@V?$allocator@D@2@@std@@CA_K_K00@Z$rtcFrameData
  000ec	e8 00 00 00 00	 call	 _RTC_CheckStackVars
  000f1	48 8b c7	 mov	 rax, rdi
  000f4	48 8b 8d f8 00
	00 00		 mov	 rcx, QWORD PTR __$ArrayPad$[rbp]
  000fb	48 33 cd	 xor	 rcx, rbp
  000fe	e8 00 00 00 00	 call	 __security_check_cookie
  00103	48 8d a5 08 01
	00 00		 lea	 rsp, QWORD PTR [rbp+264]
  0010a	5f		 pop	 rdi
  0010b	5d		 pop	 rbp
  0010c	c3		 ret	 0
?_Calculate_growth@?$basic_string@DU?$char_traits@D@std@@V?$allocator@D@2@@std@@CA_K_K00@Z ENDP ; std::basic_string<char,std::char_traits<char>,std::allocator<char> >::_Calculate_growth
_TEXT	ENDS
; Function compile flags: /Odtp /RTCsu /ZI
; File C:\Program Files (x86)\Microsoft Visual Studio\2019\Community\VC\Tools\MSVC\14.27.29110\include\xstring
;	COMDAT ?max_size@?$basic_string@DU?$char_traits@D@std@@V?$allocator@D@2@@std@@QEBA_KXZ
_TEXT	SEGMENT
_Alloc_max$ = 8
_Storage_max$ = 40
$T4 = 264
$T5 = 296
$T6 = 328
__$ArrayPad$ = 344
this$ = 384
?max_size@?$basic_string@DU?$char_traits@D@std@@V?$allocator@D@2@@std@@QEBA_KXZ PROC ; std::basic_string<char,std::char_traits<char>,std::allocator<char> >::max_size, COMDAT

; 3689 :     _NODISCARD size_type max_size() const noexcept {

$LN3:
  00000	48 89 4c 24 08	 mov	 QWORD PTR [rsp+8], rcx
  00005	55		 push	 rbp
  00006	57		 push	 rdi
  00007	48 81 ec 88 01
	00 00		 sub	 rsp, 392		; 00000188H
  0000e	48 8d 6c 24 20	 lea	 rbp, QWORD PTR [rsp+32]
  00013	48 8b fc	 mov	 rdi, rsp
  00016	b9 62 00 00 00	 mov	 ecx, 98			; 00000062H
  0001b	b8 cc cc cc cc	 mov	 eax, -858993460		; ccccccccH
  00020	f3 ab		 rep stosd
  00022	48 8b 8c 24 a8
	01 00 00	 mov	 rcx, QWORD PTR [rsp+424]
  0002a	48 8b 05 00 00
	00 00		 mov	 rax, QWORD PTR __security_cookie
  00031	48 33 c5	 xor	 rax, rbp
  00034	48 89 85 58 01
	00 00		 mov	 QWORD PTR __$ArrayPad$[rbp], rax
  0003b	48 8d 0d 00 00
	00 00		 lea	 rcx, OFFSET FLAT:__D15AFF60_xstring
  00042	e8 00 00 00 00	 call	 __CheckForDebuggerJustMyCode

; 3690 :         const size_type _Alloc_max   = _Alty_traits::max_size(_Getal());

  00047	48 8b 8d 80 01
	00 00		 mov	 rcx, QWORD PTR this$[rbp]
  0004e	e8 00 00 00 00	 call	 ?_Getal@?$basic_string@DU?$char_traits@D@std@@V?$allocator@D@2@@std@@AEBAAEBV?$allocator@D@2@XZ ; std::basic_string<char,std::char_traits<char>,std::allocator<char> >::_Getal
  00053	48 8b c8	 mov	 rcx, rax
  00056	e8 00 00 00 00	 call	 ?max_size@?$_Default_allocator_traits@V?$allocator@D@std@@@std@@SA_KAEBV?$allocator@D@2@@Z ; std::_Default_allocator_traits<std::allocator<char> >::max_size
  0005b	48 89 45 08	 mov	 QWORD PTR _Alloc_max$[rbp], rax

; 3691 :         const size_type _Storage_max = // can always store small string

  0005f	48 c7 85 08 01
	00 00 10 00 00
	00		 mov	 QWORD PTR $T4[rbp], 16
  0006a	48 8d 95 08 01
	00 00		 lea	 rdx, QWORD PTR $T4[rbp]
  00071	48 8d 4d 08	 lea	 rcx, QWORD PTR _Alloc_max$[rbp]
  00075	e8 00 00 00 00	 call	 ??$max@_K@std@@YAAEB_KAEB_K0@Z ; std::max<unsigned __int64>
  0007a	48 8b 00	 mov	 rax, QWORD PTR [rax]
  0007d	48 89 45 28	 mov	 QWORD PTR _Storage_max$[rbp], rax

; 3692 :             (_STD max)(_Alloc_max, static_cast<size_type>(_BUF_SIZE));
; 3693 :         return (_STD min)(static_cast<size_type>((numeric_limits<difference_type>::max)()),

  00081	48 8b 45 28	 mov	 rax, QWORD PTR _Storage_max$[rbp]
  00085	48 ff c8	 dec	 rax
  00088	48 89 85 28 01
	00 00		 mov	 QWORD PTR $T5[rbp], rax
  0008f	e8 00 00 00 00	 call	 ?max@?$numeric_limits@_J@std@@SA_JXZ ; std::numeric_limits<__int64>::max
  00094	48 89 85 48 01
	00 00		 mov	 QWORD PTR $T6[rbp], rax
  0009b	48 8d 95 28 01
	00 00		 lea	 rdx, QWORD PTR $T5[rbp]
  000a2	48 8d 8d 48 01
	00 00		 lea	 rcx, QWORD PTR $T6[rbp]
  000a9	e8 00 00 00 00	 call	 ??$min@_K@std@@YAAEB_KAEB_K0@Z ; std::min<unsigned __int64>
  000ae	48 8b 00	 mov	 rax, QWORD PTR [rax]

; 3694 :             _Storage_max - 1 // -1 is for null terminator and/or npos
; 3695 :         );
; 3696 :     }

  000b1	48 8b f8	 mov	 rdi, rax
  000b4	48 8d 4d e0	 lea	 rcx, QWORD PTR [rbp-32]
  000b8	48 8d 15 00 00
	00 00		 lea	 rdx, OFFSET FLAT:?max_size@?$basic_string@DU?$char_traits@D@std@@V?$allocator@D@2@@std@@QEBA_KXZ$rtcFrameData
  000bf	e8 00 00 00 00	 call	 _RTC_CheckStackVars
  000c4	48 8b c7	 mov	 rax, rdi
  000c7	48 8b 8d 58 01
	00 00		 mov	 rcx, QWORD PTR __$ArrayPad$[rbp]
  000ce	48 33 cd	 xor	 rcx, rbp
  000d1	e8 00 00 00 00	 call	 __security_check_cookie
  000d6	48 8d a5 68 01
	00 00		 lea	 rsp, QWORD PTR [rbp+360]
  000dd	5f		 pop	 rdi
  000de	5d		 pop	 rbp
  000df	c3		 ret	 0
?max_size@?$basic_string@DU?$char_traits@D@std@@V?$allocator@D@2@@std@@QEBA_KXZ ENDP ; std::basic_string<char,std::char_traits<char>,std::allocator<char> >::max_size
_TEXT	ENDS
; Function compile flags: /Odtp /RTCsu /ZI
; File C:\Program Files (x86)\Microsoft Visual Studio\2019\Community\VC\Tools\MSVC\14.27.29110\include\xstring
;	COMDAT ?assign@?$basic_string@DU?$char_traits@D@std@@V?$allocator@D@2@@std@@QEAAAEAV12@QEBD@Z
_TEXT	SEGMENT
this$ = 224
_Ptr$ = 232
?assign@?$basic_string@DU?$char_traits@D@std@@V?$allocator@D@2@@std@@QEAAAEAV12@QEBD@Z PROC ; std::basic_string<char,std::char_traits<char>,std::allocator<char> >::assign, COMDAT

; 2983 :     basic_string& assign(_In_z_ const _Elem* const _Ptr) {

$LN3:
  00000	48 89 54 24 10	 mov	 QWORD PTR [rsp+16], rdx
  00005	48 89 4c 24 08	 mov	 QWORD PTR [rsp+8], rcx
  0000a	55		 push	 rbp
  0000b	57		 push	 rdi
  0000c	48 81 ec e8 00
	00 00		 sub	 rsp, 232		; 000000e8H
  00013	48 8d 6c 24 20	 lea	 rbp, QWORD PTR [rsp+32]
  00018	48 8b fc	 mov	 rdi, rsp
  0001b	b9 3a 00 00 00	 mov	 ecx, 58			; 0000003aH
  00020	b8 cc cc cc cc	 mov	 eax, -858993460		; ccccccccH
  00025	f3 ab		 rep stosd
  00027	48 8b 8c 24 08
	01 00 00	 mov	 rcx, QWORD PTR [rsp+264]
  0002f	48 8d 0d 00 00
	00 00		 lea	 rcx, OFFSET FLAT:__D15AFF60_xstring
  00036	e8 00 00 00 00	 call	 __CheckForDebuggerJustMyCode

; 2984 :         return assign(_Ptr, _Convert_size<size_type>(_Traits::length(_Ptr)));

  0003b	48 8b 8d e8 00
	00 00		 mov	 rcx, QWORD PTR _Ptr$[rbp]
  00042	e8 00 00 00 00	 call	 ?length@?$_Narrow_char_traits@DH@std@@SA_KQEBD@Z ; std::_Narrow_char_traits<char,int>::length
  00047	48 8b c8	 mov	 rcx, rax
  0004a	e8 00 00 00 00	 call	 ??$_Convert_size@_K@std@@YA_K_K@Z ; std::_Convert_size<unsigned __int64>
  0004f	4c 8b c0	 mov	 r8, rax
  00052	48 8b 95 e8 00
	00 00		 mov	 rdx, QWORD PTR _Ptr$[rbp]
  00059	48 8b 8d e0 00
	00 00		 mov	 rcx, QWORD PTR this$[rbp]
  00060	e8 00 00 00 00	 call	 ?assign@?$basic_string@DU?$char_traits@D@std@@V?$allocator@D@2@@std@@QEAAAEAV12@QEBD_K@Z ; std::basic_string<char,std::char_traits<char>,std::allocator<char> >::assign

; 2985 :     }

  00065	48 8d a5 c8 00
	00 00		 lea	 rsp, QWORD PTR [rbp+200]
  0006c	5f		 pop	 rdi
  0006d	5d		 pop	 rbp
  0006e	c3		 ret	 0
?assign@?$basic_string@DU?$char_traits@D@std@@V?$allocator@D@2@@std@@QEAAAEAV12@QEBD@Z ENDP ; std::basic_string<char,std::char_traits<char>,std::allocator<char> >::assign
_TEXT	ENDS
; Function compile flags: /Odtp /RTCsu /ZI
; File C:\Program Files (x86)\Microsoft Visual Studio\2019\Community\VC\Tools\MSVC\14.27.29110\include\xstring
;	COMDAT ?assign@?$basic_string@DU?$char_traits@D@std@@V?$allocator@D@2@@std@@QEAAAEAV12@QEBD_K@Z
_TEXT	SEGMENT
_Old_ptr$1 = 8
$T2 = 228
$T3 = 260
this$ = 320
_Ptr$ = 328
_Count$ = 336
?assign@?$basic_string@DU?$char_traits@D@std@@V?$allocator@D@2@@std@@QEAAAEAV12@QEBD_K@Z PROC ; std::basic_string<char,std::char_traits<char>,std::allocator<char> >::assign, COMDAT

; 2964 :     basic_string& assign(_In_reads_(_Count) const _Elem* const _Ptr, _CRT_GUARDOVERFLOW const size_type _Count) {

$LN4:
  00000	4c 89 44 24 18	 mov	 QWORD PTR [rsp+24], r8
  00005	48 89 54 24 10	 mov	 QWORD PTR [rsp+16], rdx
  0000a	48 89 4c 24 08	 mov	 QWORD PTR [rsp+8], rcx
  0000f	55		 push	 rbp
  00010	57		 push	 rdi
  00011	48 81 ec 48 01
	00 00		 sub	 rsp, 328		; 00000148H
  00018	48 8d 6c 24 20	 lea	 rbp, QWORD PTR [rsp+32]
  0001d	48 8b fc	 mov	 rdi, rsp
  00020	b9 52 00 00 00	 mov	 ecx, 82			; 00000052H
  00025	b8 cc cc cc cc	 mov	 eax, -858993460		; ccccccccH
  0002a	f3 ab		 rep stosd
  0002c	48 8b 8c 24 68
	01 00 00	 mov	 rcx, QWORD PTR [rsp+360]
  00034	48 8d 0d 00 00
	00 00		 lea	 rcx, OFFSET FLAT:__D15AFF60_xstring
  0003b	e8 00 00 00 00	 call	 __CheckForDebuggerJustMyCode

; 2965 :         // assign [_Ptr, _Ptr + _Count)
; 2966 :         if (_Count <= _Mypair._Myval2._Myres) {

  00040	48 8b 85 40 01
	00 00		 mov	 rax, QWORD PTR this$[rbp]
  00047	48 8b 40 20	 mov	 rax, QWORD PTR [rax+32]
  0004b	48 39 85 50 01
	00 00		 cmp	 QWORD PTR _Count$[rbp], rax
  00052	77 6c		 ja	 SHORT $LN2@assign

; 2967 :             _Elem* const _Old_ptr   = _Mypair._Myval2._Myptr();

  00054	48 8b 85 40 01
	00 00		 mov	 rax, QWORD PTR this$[rbp]
  0005b	48 8b c8	 mov	 rcx, rax
  0005e	e8 00 00 00 00	 call	 ?_Myptr@?$_String_val@U?$_Simple_types@D@std@@@std@@QEAAPEADXZ ; std::_String_val<std::_Simple_types<char> >::_Myptr
  00063	48 89 45 08	 mov	 QWORD PTR _Old_ptr$1[rbp], rax

; 2968 :             _Mypair._Myval2._Mysize = _Count;

  00067	48 8b 85 40 01
	00 00		 mov	 rax, QWORD PTR this$[rbp]
  0006e	48 8b 8d 50 01
	00 00		 mov	 rcx, QWORD PTR _Count$[rbp]
  00075	48 89 48 18	 mov	 QWORD PTR [rax+24], rcx

; 2969 :             _Traits::move(_Old_ptr, _Ptr, _Count);

  00079	4c 8b 85 50 01
	00 00		 mov	 r8, QWORD PTR _Count$[rbp]
  00080	48 8b 95 48 01
	00 00		 mov	 rdx, QWORD PTR _Ptr$[rbp]
  00087	48 8b 4d 08	 mov	 rcx, QWORD PTR _Old_ptr$1[rbp]
  0008b	e8 00 00 00 00	 call	 ?move@?$_Narrow_char_traits@DH@std@@SAPEADQEADQEBD_K@Z ; std::_Narrow_char_traits<char,int>::move

; 2970 :             _Traits::assign(_Old_ptr[_Count], _Elem());

  00090	c6 85 e4 00 00
	00 00		 mov	 BYTE PTR $T2[rbp], 0
  00097	48 8b 85 50 01
	00 00		 mov	 rax, QWORD PTR _Count$[rbp]
  0009e	48 8b 4d 08	 mov	 rcx, QWORD PTR _Old_ptr$1[rbp]
  000a2	48 03 c8	 add	 rcx, rax
  000a5	48 8b c1	 mov	 rax, rcx
  000a8	48 8d 95 e4 00
	00 00		 lea	 rdx, QWORD PTR $T2[rbp]
  000af	48 8b c8	 mov	 rcx, rax
  000b2	e8 00 00 00 00	 call	 ?assign@?$_Narrow_char_traits@DH@std@@SAXAEADAEBD@Z ; std::_Narrow_char_traits<char,int>::assign

; 2971 :             return *this;

  000b7	48 8b 85 40 01
	00 00		 mov	 rax, QWORD PTR this$[rbp]
  000be	eb 35		 jmp	 SHORT $LN1@assign
$LN2@assign:

; 2972 :         }
; 2973 : 
; 2974 :         return _Reallocate_for(

  000c0	48 8d 85 04 01
	00 00		 lea	 rax, QWORD PTR $T3[rbp]
  000c7	48 8b f8	 mov	 rdi, rax
  000ca	33 c0		 xor	 eax, eax
  000cc	b9 01 00 00 00	 mov	 ecx, 1
  000d1	f3 aa		 rep stosb
  000d3	4c 8b 8d 48 01
	00 00		 mov	 r9, QWORD PTR _Ptr$[rbp]
  000da	44 0f b6 85 04
	01 00 00	 movzx	 r8d, BYTE PTR $T3[rbp]
  000e2	48 8b 95 50 01
	00 00		 mov	 rdx, QWORD PTR _Count$[rbp]
  000e9	48 8b 8d 40 01
	00 00		 mov	 rcx, QWORD PTR this$[rbp]
  000f0	e8 00 00 00 00	 call	 ??$_Reallocate_for@V<lambda_66f57f934f28d61049862f64df852ff0>@@PEBD@?$basic_string@DU?$char_traits@D@std@@V?$allocator@D@2@@std@@AEAAAEAV01@_KV<lambda_66f57f934f28d61049862f64df852ff0>@@PEBD@Z ; std::basic_string<char,std::char_traits<char>,std::allocator<char> >::_Reallocate_for<<lambda_66f57f934f28d61049862f64df852ff0>,char const *>
$LN1@assign:

; 2975 :             _Count,
; 2976 :             [](_Elem* const _New_ptr, const size_type _Count, const _Elem* const _Ptr) {
; 2977 :                 _Traits::copy(_New_ptr, _Ptr, _Count);
; 2978 :                 _Traits::assign(_New_ptr[_Count], _Elem());
; 2979 :             },
; 2980 :             _Ptr);
; 2981 :     }

  000f5	48 8d a5 28 01
	00 00		 lea	 rsp, QWORD PTR [rbp+296]
  000fc	5f		 pop	 rdi
  000fd	5d		 pop	 rbp
  000fe	c3		 ret	 0
?assign@?$basic_string@DU?$char_traits@D@std@@V?$allocator@D@2@@std@@QEAAAEAV12@QEBD_K@Z ENDP ; std::basic_string<char,std::char_traits<char>,std::allocator<char> >::assign
_TEXT	ENDS
; Function compile flags: /Odtp /RTCsu /ZI
; File C:\Program Files (x86)\Microsoft Visual Studio\2019\Community\VC\Tools\MSVC\14.27.29110\include\xstring
;	COMDAT ??1?$basic_string@DU?$char_traits@D@std@@V?$allocator@D@2@@std@@QEAA@XZ
_TEXT	SEGMENT
_Alproxy$ = 8
$S7$ = 36
_To_delete$ = 72
__$ArrayPad$ = 280
this$ = 320
??1?$basic_string@DU?$char_traits@D@std@@V?$allocator@D@2@@std@@QEAA@XZ PROC ; std::basic_string<char,std::char_traits<char>,std::allocator<char> >::~basic_string<char,std::char_traits<char>,std::allocator<char> >, COMDAT

; 2722 :     ~basic_string() noexcept {

$LN3:
  00000	48 89 4c 24 08	 mov	 QWORD PTR [rsp+8], rcx
  00005	55		 push	 rbp
  00006	57		 push	 rdi
  00007	48 81 ec 48 01
	00 00		 sub	 rsp, 328		; 00000148H
  0000e	48 8d 6c 24 20	 lea	 rbp, QWORD PTR [rsp+32]
  00013	48 8b fc	 mov	 rdi, rsp
  00016	b9 52 00 00 00	 mov	 ecx, 82			; 00000052H
  0001b	b8 cc cc cc cc	 mov	 eax, -858993460		; ccccccccH
  00020	f3 ab		 rep stosd
  00022	48 8b 8c 24 68
	01 00 00	 mov	 rcx, QWORD PTR [rsp+360]
  0002a	48 8b 05 00 00
	00 00		 mov	 rax, QWORD PTR __security_cookie
  00031	48 33 c5	 xor	 rax, rbp
  00034	48 89 85 18 01
	00 00		 mov	 QWORD PTR __$ArrayPad$[rbp], rax
  0003b	48 8d 0d 00 00
	00 00		 lea	 rcx, OFFSET FLAT:__D15AFF60_xstring
  00042	e8 00 00 00 00	 call	 __CheckForDebuggerJustMyCode

; 2723 :         _Tidy_deallocate();

  00047	48 8b 8d 40 01
	00 00		 mov	 rcx, QWORD PTR this$[rbp]
  0004e	e8 00 00 00 00	 call	 ?_Tidy_deallocate@?$basic_string@DU?$char_traits@D@std@@V?$allocator@D@2@@std@@AEAAXXZ ; std::basic_string<char,std::char_traits<char>,std::allocator<char> >::_Tidy_deallocate

; 2724 : #if _ITERATOR_DEBUG_LEVEL != 0
; 2725 :         auto&& _Alproxy          = _GET_PROXY_ALLOCATOR(_Alty, _Getal());

  00053	48 8b 8d 40 01
	00 00		 mov	 rcx, QWORD PTR this$[rbp]
  0005a	e8 00 00 00 00	 call	 ?_Getal@?$basic_string@DU?$char_traits@D@std@@V?$allocator@D@2@@std@@AEAAAEAV?$allocator@D@2@XZ ; std::basic_string<char,std::char_traits<char>,std::allocator<char> >::_Getal
  0005f	48 8b d0	 mov	 rdx, rax
  00062	48 8d 4d 24	 lea	 rcx, QWORD PTR $S7$[rbp]
  00066	e8 00 00 00 00	 call	 ??$?0D@?$allocator@U_Container_proxy@std@@@std@@QEAA@AEBV?$allocator@D@1@@Z ; std::allocator<std::_Container_proxy>::allocator<std::_Container_proxy><char>
  0006b	48 8d 45 24	 lea	 rax, QWORD PTR $S7$[rbp]
  0006f	48 89 45 08	 mov	 QWORD PTR _Alproxy$[rbp], rax

; 2726 :         const auto _To_delete    = _Mypair._Myval2._Myproxy;

  00073	48 8b 85 40 01
	00 00		 mov	 rax, QWORD PTR this$[rbp]
  0007a	48 8b 00	 mov	 rax, QWORD PTR [rax]
  0007d	48 89 45 48	 mov	 QWORD PTR _To_delete$[rbp], rax

; 2727 :         _Mypair._Myval2._Myproxy = nullptr;

  00081	48 8b 85 40 01
	00 00		 mov	 rax, QWORD PTR this$[rbp]
  00088	48 c7 00 00 00
	00 00		 mov	 QWORD PTR [rax], 0

; 2728 :         _Delete_plain_internal(_Alproxy, _To_delete);

  0008f	48 8b 55 48	 mov	 rdx, QWORD PTR _To_delete$[rbp]
  00093	48 8b 4d 08	 mov	 rcx, QWORD PTR _Alproxy$[rbp]
  00097	e8 00 00 00 00	 call	 ??$_Delete_plain_internal@V?$allocator@U_Container_proxy@std@@@std@@@std@@YAXAEAV?$allocator@U_Container_proxy@std@@@0@QEAU_Container_proxy@0@@Z ; std::_Delete_plain_internal<std::allocator<std::_Container_proxy> >

; 2729 : #endif // _ITERATOR_DEBUG_LEVEL != 0
; 2730 :     }

  0009c	48 8b 85 40 01
	00 00		 mov	 rax, QWORD PTR this$[rbp]
  000a3	48 8b c8	 mov	 rcx, rax
  000a6	e8 00 00 00 00	 call	 ??1?$_Compressed_pair@V?$allocator@D@std@@V?$_String_val@U?$_Simple_types@D@std@@@2@$00@std@@QEAA@XZ
  000ab	48 8d 4d e0	 lea	 rcx, QWORD PTR [rbp-32]
  000af	48 8d 15 00 00
	00 00		 lea	 rdx, OFFSET FLAT:??1?$basic_string@DU?$char_traits@D@std@@V?$allocator@D@2@@std@@QEAA@XZ$rtcFrameData
  000b6	e8 00 00 00 00	 call	 _RTC_CheckStackVars
  000bb	90		 npad	 1
  000bc	48 8b 8d 18 01
	00 00		 mov	 rcx, QWORD PTR __$ArrayPad$[rbp]
  000c3	48 33 cd	 xor	 rcx, rbp
  000c6	e8 00 00 00 00	 call	 __security_check_cookie
  000cb	48 8d a5 28 01
	00 00		 lea	 rsp, QWORD PTR [rbp+296]
  000d2	5f		 pop	 rdi
  000d3	5d		 pop	 rbp
  000d4	c3		 ret	 0
??1?$basic_string@DU?$char_traits@D@std@@V?$allocator@D@2@@std@@QEAA@XZ ENDP ; std::basic_string<char,std::char_traits<char>,std::allocator<char> >::~basic_string<char,std::char_traits<char>,std::allocator<char> >
_TEXT	ENDS
; Function compile flags: /Odtp /RTCsu /ZI
; File C:\Program Files (x86)\Microsoft Visual Studio\2019\Community\VC\Tools\MSVC\14.27.29110\include\xstring
;	COMDAT ??0?$basic_string@DU?$char_traits@D@std@@V?$allocator@D@2@@std@@QEAA@QEBD@Z
_TEXT	SEGMENT
_Alproxy$ = 8
$S8$ = 36
_Proxy$ = 72
$T5 = 308
__$ArrayPad$ = 328
this$ = 368
_Ptr$ = 376
??0?$basic_string@DU?$char_traits@D@std@@V?$allocator@D@2@@std@@QEAA@QEBD@Z PROC ; std::basic_string<char,std::char_traits<char>,std::allocator<char> >::basic_string<char,std::char_traits<char>,std::allocator<char> >, COMDAT

; 2335 :     basic_string(_In_z_ const _Elem* const _Ptr) : _Mypair(_Zero_then_variadic_args_t{}) {

$LN5:
  00000	48 89 54 24 10	 mov	 QWORD PTR [rsp+16], rdx
  00005	48 89 4c 24 08	 mov	 QWORD PTR [rsp+8], rcx
  0000a	55		 push	 rbp
  0000b	57		 push	 rdi
  0000c	48 81 ec 78 01
	00 00		 sub	 rsp, 376		; 00000178H
  00013	48 8d 6c 24 20	 lea	 rbp, QWORD PTR [rsp+32]
  00018	48 8b fc	 mov	 rdi, rsp
  0001b	b9 5e 00 00 00	 mov	 ecx, 94			; 0000005eH
  00020	b8 cc cc cc cc	 mov	 eax, -858993460		; ccccccccH
  00025	f3 ab		 rep stosd
  00027	48 8b 8c 24 98
	01 00 00	 mov	 rcx, QWORD PTR [rsp+408]
  0002f	48 8b 05 00 00
	00 00		 mov	 rax, QWORD PTR __security_cookie
  00036	48 33 c5	 xor	 rax, rbp
  00039	48 89 85 48 01
	00 00		 mov	 QWORD PTR __$ArrayPad$[rbp], rax
  00040	48 8d 0d 00 00
	00 00		 lea	 rcx, OFFSET FLAT:__D15AFF60_xstring
  00047	e8 00 00 00 00	 call	 __CheckForDebuggerJustMyCode
  0004c	48 8b 85 70 01
	00 00		 mov	 rax, QWORD PTR this$[rbp]
  00053	0f b6 95 34 01
	00 00		 movzx	 edx, BYTE PTR $T5[rbp]
  0005a	48 8b c8	 mov	 rcx, rax
  0005d	e8 00 00 00 00	 call	 ??$?0$$V@?$_Compressed_pair@V?$allocator@D@std@@V?$_String_val@U?$_Simple_types@D@std@@@2@$00@std@@QEAA@U_Zero_then_variadic_args_t@1@@Z ; std::_Compressed_pair<std::allocator<char>,std::_String_val<std::_Simple_types<char> >,1>::_Compressed_pair<std::allocator<char>,std::_String_val<std::_Simple_types<char> >,1><>
  00062	90		 npad	 1

; 2336 :         auto&& _Alproxy = _GET_PROXY_ALLOCATOR(_Alty, _Getal());

  00063	48 8b 8d 70 01
	00 00		 mov	 rcx, QWORD PTR this$[rbp]
  0006a	e8 00 00 00 00	 call	 ?_Getal@?$basic_string@DU?$char_traits@D@std@@V?$allocator@D@2@@std@@AEAAAEAV?$allocator@D@2@XZ ; std::basic_string<char,std::char_traits<char>,std::allocator<char> >::_Getal
  0006f	48 8b d0	 mov	 rdx, rax
  00072	48 8d 4d 24	 lea	 rcx, QWORD PTR $S8$[rbp]
  00076	e8 00 00 00 00	 call	 ??$?0D@?$allocator@U_Container_proxy@std@@@std@@QEAA@AEBV?$allocator@D@1@@Z ; std::allocator<std::_Container_proxy>::allocator<std::_Container_proxy><char>
  0007b	48 8d 45 24	 lea	 rax, QWORD PTR $S8$[rbp]
  0007f	48 89 45 08	 mov	 QWORD PTR _Alproxy$[rbp], rax

; 2337 :         _Container_proxy_ptr<_Alty> _Proxy(_Alproxy, _Mypair._Myval2);

  00083	48 8b 85 70 01
	00 00		 mov	 rax, QWORD PTR this$[rbp]
  0008a	4c 8b c0	 mov	 r8, rax
  0008d	48 8b 55 08	 mov	 rdx, QWORD PTR _Alproxy$[rbp]
  00091	48 8d 4d 48	 lea	 rcx, QWORD PTR _Proxy$[rbp]
  00095	e8 00 00 00 00	 call	 ??0?$_Container_proxy_ptr12@V?$allocator@U_Container_proxy@std@@@std@@@std@@QEAA@AEAV?$allocator@U_Container_proxy@std@@@1@AEAU_Container_base12@1@@Z ; std::_Container_proxy_ptr12<std::allocator<std::_Container_proxy> >::_Container_proxy_ptr12<std::allocator<std::_Container_proxy> >
  0009a	90		 npad	 1

; 2338 :         _Tidy_init();

  0009b	48 8b 8d 70 01
	00 00		 mov	 rcx, QWORD PTR this$[rbp]
  000a2	e8 00 00 00 00	 call	 ?_Tidy_init@?$basic_string@DU?$char_traits@D@std@@V?$allocator@D@2@@std@@AEAAXXZ ; std::basic_string<char,std::char_traits<char>,std::allocator<char> >::_Tidy_init

; 2339 :         assign(_Ptr);

  000a7	48 8b 95 78 01
	00 00		 mov	 rdx, QWORD PTR _Ptr$[rbp]
  000ae	48 8b 8d 70 01
	00 00		 mov	 rcx, QWORD PTR this$[rbp]
  000b5	e8 00 00 00 00	 call	 ?assign@?$basic_string@DU?$char_traits@D@std@@V?$allocator@D@2@@std@@QEAAAEAV12@QEBD@Z ; std::basic_string<char,std::char_traits<char>,std::allocator<char> >::assign

; 2340 :         _Proxy._Release();

  000ba	48 8d 4d 48	 lea	 rcx, QWORD PTR _Proxy$[rbp]
  000be	e8 00 00 00 00	 call	 ?_Release@_Basic_container_proxy_ptr12@std@@QEAAXXZ ; std::_Basic_container_proxy_ptr12::_Release
  000c3	90		 npad	 1

; 2341 :     }

  000c4	48 8d 4d 48	 lea	 rcx, QWORD PTR _Proxy$[rbp]
  000c8	e8 00 00 00 00	 call	 ??1?$_Container_proxy_ptr12@V?$allocator@U_Container_proxy@std@@@std@@@std@@QEAA@XZ ; std::_Container_proxy_ptr12<std::allocator<std::_Container_proxy> >::~_Container_proxy_ptr12<std::allocator<std::_Container_proxy> >
  000cd	90		 npad	 1
  000ce	48 8b 85 70 01
	00 00		 mov	 rax, QWORD PTR this$[rbp]
  000d5	48 8b f8	 mov	 rdi, rax
  000d8	48 8d 4d e0	 lea	 rcx, QWORD PTR [rbp-32]
  000dc	48 8d 15 00 00
	00 00		 lea	 rdx, OFFSET FLAT:??0?$basic_string@DU?$char_traits@D@std@@V?$allocator@D@2@@std@@QEAA@QEBD@Z$rtcFrameData
  000e3	e8 00 00 00 00	 call	 _RTC_CheckStackVars
  000e8	48 8b c7	 mov	 rax, rdi
  000eb	48 8b 8d 48 01
	00 00		 mov	 rcx, QWORD PTR __$ArrayPad$[rbp]
  000f2	48 33 cd	 xor	 rcx, rbp
  000f5	e8 00 00 00 00	 call	 __security_check_cookie
  000fa	48 8d a5 58 01
	00 00		 lea	 rsp, QWORD PTR [rbp+344]
  00101	5f		 pop	 rdi
  00102	5d		 pop	 rbp
  00103	c3		 ret	 0
??0?$basic_string@DU?$char_traits@D@std@@V?$allocator@D@2@@std@@QEAA@QEBD@Z ENDP ; std::basic_string<char,std::char_traits<char>,std::allocator<char> >::basic_string<char,std::char_traits<char>,std::allocator<char> >
_TEXT	ENDS
;	COMDAT text$x
text$x	SEGMENT
_Alproxy$ = 8
$S8$ = 36
_Proxy$ = 72
$T5 = 308
__$ArrayPad$ = 328
this$ = 368
_Ptr$ = 376
?dtor$0@?0???0?$basic_string@DU?$char_traits@D@std@@V?$allocator@D@2@@std@@QEAA@QEBD@Z@4HA PROC ; `std::basic_string<char,std::char_traits<char>,std::allocator<char> >::basic_string<char,std::char_traits<char>,std::allocator<char> >'::`1'::dtor$0
  00000	48 89 4c 24 08	 mov	 QWORD PTR [rsp+8], rcx
  00005	48 89 54 24 10	 mov	 QWORD PTR [rsp+16], rdx
  0000a	55		 push	 rbp
  0000b	57		 push	 rdi
  0000c	48 83 ec 28	 sub	 rsp, 40			; 00000028H
  00010	48 8d 6a 20	 lea	 rbp, QWORD PTR [rdx+32]
  00014	48 8b 8d 70 01
	00 00		 mov	 rcx, QWORD PTR this$[rbp]
  0001b	e8 00 00 00 00	 call	 ??1?$_Compressed_pair@V?$allocator@D@std@@V?$_String_val@U?$_Simple_types@D@std@@@2@$00@std@@QEAA@XZ
  00020	48 83 c4 28	 add	 rsp, 40			; 00000028H
  00024	5f		 pop	 rdi
  00025	5d		 pop	 rbp
  00026	c3		 ret	 0
?dtor$0@?0???0?$basic_string@DU?$char_traits@D@std@@V?$allocator@D@2@@std@@QEAA@QEBD@Z@4HA ENDP ; `std::basic_string<char,std::char_traits<char>,std::allocator<char> >::basic_string<char,std::char_traits<char>,std::allocator<char> >'::`1'::dtor$0
text$x	ENDS
;	COMDAT text$x
text$x	SEGMENT
_Alproxy$ = 8
$S8$ = 36
_Proxy$ = 72
$T5 = 308
__$ArrayPad$ = 328
this$ = 368
_Ptr$ = 376
?dtor$1@?0???0?$basic_string@DU?$char_traits@D@std@@V?$allocator@D@2@@std@@QEAA@QEBD@Z@4HA PROC ; `std::basic_string<char,std::char_traits<char>,std::allocator<char> >::basic_string<char,std::char_traits<char>,std::allocator<char> >'::`1'::dtor$1
  00000	48 89 4c 24 08	 mov	 QWORD PTR [rsp+8], rcx
  00005	48 89 54 24 10	 mov	 QWORD PTR [rsp+16], rdx
  0000a	55		 push	 rbp
  0000b	57		 push	 rdi
  0000c	48 83 ec 28	 sub	 rsp, 40			; 00000028H
  00010	48 8d 6a 20	 lea	 rbp, QWORD PTR [rdx+32]
  00014	48 8d 4d 48	 lea	 rcx, QWORD PTR _Proxy$[rbp]
  00018	e8 00 00 00 00	 call	 ??1?$_Container_proxy_ptr12@V?$allocator@U_Container_proxy@std@@@std@@@std@@QEAA@XZ ; std::_Container_proxy_ptr12<std::allocator<std::_Container_proxy> >::~_Container_proxy_ptr12<std::allocator<std::_Container_proxy> >
  0001d	48 83 c4 28	 add	 rsp, 40			; 00000028H
  00021	5f		 pop	 rdi
  00022	5d		 pop	 rbp
  00023	c3		 ret	 0
?dtor$1@?0???0?$basic_string@DU?$char_traits@D@std@@V?$allocator@D@2@@std@@QEAA@QEBD@Z@4HA ENDP ; `std::basic_string<char,std::char_traits<char>,std::allocator<char> >::basic_string<char,std::char_traits<char>,std::allocator<char> >'::`1'::dtor$1
text$x	ENDS
; Function compile flags: /Odtp /RTCsu /ZI
;	COMDAT text$x
text$x	SEGMENT
_Alproxy$ = 8
$S8$ = 36
_Proxy$ = 72
$T5 = 308
__$ArrayPad$ = 328
this$ = 368
_Ptr$ = 376
?dtor$0@?0???0?$basic_string@DU?$char_traits@D@std@@V?$allocator@D@2@@std@@QEAA@QEBD@Z@4HA PROC ; `std::basic_string<char,std::char_traits<char>,std::allocator<char> >::basic_string<char,std::char_traits<char>,std::allocator<char> >'::`1'::dtor$0
  00000	48 89 4c 24 08	 mov	 QWORD PTR [rsp+8], rcx
  00005	48 89 54 24 10	 mov	 QWORD PTR [rsp+16], rdx
  0000a	55		 push	 rbp
  0000b	57		 push	 rdi
  0000c	48 83 ec 28	 sub	 rsp, 40			; 00000028H
  00010	48 8d 6a 20	 lea	 rbp, QWORD PTR [rdx+32]
  00014	48 8b 8d 70 01
	00 00		 mov	 rcx, QWORD PTR this$[rbp]
  0001b	e8 00 00 00 00	 call	 ??1?$_Compressed_pair@V?$allocator@D@std@@V?$_String_val@U?$_Simple_types@D@std@@@2@$00@std@@QEAA@XZ
  00020	48 83 c4 28	 add	 rsp, 40			; 00000028H
  00024	5f		 pop	 rdi
  00025	5d		 pop	 rbp
  00026	c3		 ret	 0
?dtor$0@?0???0?$basic_string@DU?$char_traits@D@std@@V?$allocator@D@2@@std@@QEAA@QEBD@Z@4HA ENDP ; `std::basic_string<char,std::char_traits<char>,std::allocator<char> >::basic_string<char,std::char_traits<char>,std::allocator<char> >'::`1'::dtor$0
text$x	ENDS
; Function compile flags: /Odtp /RTCsu /ZI
;	COMDAT text$x
text$x	SEGMENT
_Alproxy$ = 8
$S8$ = 36
_Proxy$ = 72
$T5 = 308
__$ArrayPad$ = 328
this$ = 368
_Ptr$ = 376
?dtor$1@?0???0?$basic_string@DU?$char_traits@D@std@@V?$allocator@D@2@@std@@QEAA@QEBD@Z@4HA PROC ; `std::basic_string<char,std::char_traits<char>,std::allocator<char> >::basic_string<char,std::char_traits<char>,std::allocator<char> >'::`1'::dtor$1
  00000	48 89 4c 24 08	 mov	 QWORD PTR [rsp+8], rcx
  00005	48 89 54 24 10	 mov	 QWORD PTR [rsp+16], rdx
  0000a	55		 push	 rbp
  0000b	57		 push	 rdi
  0000c	48 83 ec 28	 sub	 rsp, 40			; 00000028H
  00010	48 8d 6a 20	 lea	 rbp, QWORD PTR [rdx+32]
  00014	48 8d 4d 48	 lea	 rcx, QWORD PTR _Proxy$[rbp]
  00018	e8 00 00 00 00	 call	 ??1?$_Container_proxy_ptr12@V?$allocator@U_Container_proxy@std@@@std@@@std@@QEAA@XZ ; std::_Container_proxy_ptr12<std::allocator<std::_Container_proxy> >::~_Container_proxy_ptr12<std::allocator<std::_Container_proxy> >
  0001d	48 83 c4 28	 add	 rsp, 40			; 00000028H
  00021	5f		 pop	 rdi
  00022	5d		 pop	 rbp
  00023	c3		 ret	 0
?dtor$1@?0???0?$basic_string@DU?$char_traits@D@std@@V?$allocator@D@2@@std@@QEAA@QEBD@Z@4HA ENDP ; `std::basic_string<char,std::char_traits<char>,std::allocator<char> >::basic_string<char,std::char_traits<char>,std::allocator<char> >'::`1'::dtor$1
text$x	ENDS
; Function compile flags: /Odtp /RTCsu /ZI
;	COMDAT ??1?$_String_val@U?$_Simple_types@D@std@@@std@@QEAA@XZ
_TEXT	SEGMENT
this$ = 224
??1?$_String_val@U?$_Simple_types@D@std@@@std@@QEAA@XZ PROC ; std::_String_val<std::_Simple_types<char> >::~_String_val<std::_Simple_types<char> >, COMDAT
$LN3:
  00000	48 89 4c 24 08	 mov	 QWORD PTR [rsp+8], rcx
  00005	55		 push	 rbp
  00006	57		 push	 rdi
  00007	48 81 ec e8 00
	00 00		 sub	 rsp, 232		; 000000e8H
  0000e	48 8d 6c 24 20	 lea	 rbp, QWORD PTR [rsp+32]
  00013	48 8b fc	 mov	 rdi, rsp
  00016	b9 3a 00 00 00	 mov	 ecx, 58			; 0000003aH
  0001b	b8 cc cc cc cc	 mov	 eax, -858993460		; ccccccccH
  00020	f3 ab		 rep stosd
  00022	48 8b 8c 24 08
	01 00 00	 mov	 rcx, QWORD PTR [rsp+264]
  0002a	48 8b 85 e0 00
	00 00		 mov	 rax, QWORD PTR this$[rbp]
  00031	48 83 c0 08	 add	 rax, 8
  00035	48 8b c8	 mov	 rcx, rax
  00038	e8 00 00 00 00	 call	 ??1_Bxty@?$_String_val@U?$_Simple_types@D@std@@@std@@QEAA@XZ ; std::_String_val<std::_Simple_types<char> >::_Bxty::~_Bxty
  0003d	48 8d a5 c8 00
	00 00		 lea	 rsp, QWORD PTR [rbp+200]
  00044	5f		 pop	 rdi
  00045	5d		 pop	 rbp
  00046	c3		 ret	 0
??1?$_String_val@U?$_Simple_types@D@std@@@std@@QEAA@XZ ENDP ; std::_String_val<std::_Simple_types<char> >::~_String_val<std::_Simple_types<char> >
_TEXT	ENDS
; Function compile flags: /Odtp /RTCsu /ZI
; File C:\Program Files (x86)\Microsoft Visual Studio\2019\Community\VC\Tools\MSVC\14.27.29110\include\xstring
;	COMDAT ??1_Bxty@?$_String_val@U?$_Simple_types@D@std@@@std@@QEAA@XZ
_TEXT	SEGMENT
this$ = 224
??1_Bxty@?$_String_val@U?$_Simple_types@D@std@@@std@@QEAA@XZ PROC ; std::_String_val<std::_Simple_types<char> >::_Bxty::~_Bxty, COMDAT

; 2180 :         ~_Bxty() noexcept {} // user-provided, for fancy pointers

$LN3:
  00000	48 89 4c 24 08	 mov	 QWORD PTR [rsp+8], rcx
  00005	55		 push	 rbp
  00006	57		 push	 rdi
  00007	48 81 ec e8 00
	00 00		 sub	 rsp, 232		; 000000e8H
  0000e	48 8d 6c 24 20	 lea	 rbp, QWORD PTR [rsp+32]
  00013	48 8b fc	 mov	 rdi, rsp
  00016	b9 3a 00 00 00	 mov	 ecx, 58			; 0000003aH
  0001b	b8 cc cc cc cc	 mov	 eax, -858993460		; ccccccccH
  00020	f3 ab		 rep stosd
  00022	48 8b 8c 24 08
	01 00 00	 mov	 rcx, QWORD PTR [rsp+264]
  0002a	48 8d 0d 00 00
	00 00		 lea	 rcx, OFFSET FLAT:__D15AFF60_xstring
  00031	e8 00 00 00 00	 call	 __CheckForDebuggerJustMyCode
  00036	90		 npad	 1
  00037	48 8d a5 c8 00
	00 00		 lea	 rsp, QWORD PTR [rbp+200]
  0003e	5f		 pop	 rdi
  0003f	5d		 pop	 rbp
  00040	c3		 ret	 0
??1_Bxty@?$_String_val@U?$_Simple_types@D@std@@@std@@QEAA@XZ ENDP ; std::_String_val<std::_Simple_types<char> >::_Bxty::~_Bxty
_TEXT	ENDS
; Function compile flags: /Odtp /RTCsu /ZI
; File C:\Program Files (x86)\Microsoft Visual Studio\2019\Community\VC\Tools\MSVC\14.27.29110\include\xstring
;	COMDAT ??0_Bxty@?$_String_val@U?$_Simple_types@D@std@@@std@@QEAA@XZ
_TEXT	SEGMENT
this$ = 224
??0_Bxty@?$_String_val@U?$_Simple_types@D@std@@@std@@QEAA@XZ PROC ; std::_String_val<std::_Simple_types<char> >::_Bxty::_Bxty, COMDAT

; 2178 :         _Bxty() {} // user-provided, for fancy pointers

$LN3:
  00000	48 89 4c 24 08	 mov	 QWORD PTR [rsp+8], rcx
  00005	55		 push	 rbp
  00006	57		 push	 rdi
  00007	48 81 ec e8 00
	00 00		 sub	 rsp, 232		; 000000e8H
  0000e	48 8d 6c 24 20	 lea	 rbp, QWORD PTR [rsp+32]
  00013	48 8b fc	 mov	 rdi, rsp
  00016	b9 3a 00 00 00	 mov	 ecx, 58			; 0000003aH
  0001b	b8 cc cc cc cc	 mov	 eax, -858993460		; ccccccccH
  00020	f3 ab		 rep stosd
  00022	48 8b 8c 24 08
	01 00 00	 mov	 rcx, QWORD PTR [rsp+264]
  0002a	48 8d 0d 00 00
	00 00		 lea	 rcx, OFFSET FLAT:__D15AFF60_xstring
  00031	e8 00 00 00 00	 call	 __CheckForDebuggerJustMyCode
  00036	48 8b 85 e0 00
	00 00		 mov	 rax, QWORD PTR this$[rbp]
  0003d	48 8d a5 c8 00
	00 00		 lea	 rsp, QWORD PTR [rbp+200]
  00044	5f		 pop	 rdi
  00045	5d		 pop	 rbp
  00046	c3		 ret	 0
??0_Bxty@?$_String_val@U?$_Simple_types@D@std@@@std@@QEAA@XZ ENDP ; std::_String_val<std::_Simple_types<char> >::_Bxty::_Bxty
_TEXT	ENDS
; Function compile flags: /Odtp /RTCsu /ZI
; File C:\Program Files (x86)\Microsoft Visual Studio\2019\Community\VC\Tools\MSVC\14.27.29110\include\xstring
;	COMDAT ?_Large_string_engaged@?$_String_val@U?$_Simple_types@D@std@@@std@@QEBA_NXZ
_TEXT	SEGMENT
tv66 = 192
this$ = 240
?_Large_string_engaged@?$_String_val@U?$_Simple_types@D@std@@@std@@QEBA_NXZ PROC ; std::_String_val<std::_Simple_types<char> >::_Large_string_engaged, COMDAT

; 2152 :     bool _Large_string_engaged() const noexcept {

$LN5:
  00000	48 89 4c 24 08	 mov	 QWORD PTR [rsp+8], rcx
  00005	55		 push	 rbp
  00006	57		 push	 rdi
  00007	48 81 ec f8 00
	00 00		 sub	 rsp, 248		; 000000f8H
  0000e	48 8d 6c 24 20	 lea	 rbp, QWORD PTR [rsp+32]
  00013	48 8b fc	 mov	 rdi, rsp
  00016	b9 3e 00 00 00	 mov	 ecx, 62			; 0000003eH
  0001b	b8 cc cc cc cc	 mov	 eax, -858993460		; ccccccccH
  00020	f3 ab		 rep stosd
  00022	48 8b 8c 24 18
	01 00 00	 mov	 rcx, QWORD PTR [rsp+280]
  0002a	48 8d 0d 00 00
	00 00		 lea	 rcx, OFFSET FLAT:__D15AFF60_xstring
  00031	e8 00 00 00 00	 call	 __CheckForDebuggerJustMyCode

; 2153 :         return _BUF_SIZE <= _Myres;

  00036	48 8b 85 f0 00
	00 00		 mov	 rax, QWORD PTR this$[rbp]
  0003d	48 83 78 20 10	 cmp	 QWORD PTR [rax+32], 16
  00042	72 0c		 jb	 SHORT $LN3@Large_stri
  00044	c7 85 c0 00 00
	00 01 00 00 00	 mov	 DWORD PTR tv66[rbp], 1
  0004e	eb 0a		 jmp	 SHORT $LN4@Large_stri
$LN3@Large_stri:
  00050	c7 85 c0 00 00
	00 00 00 00 00	 mov	 DWORD PTR tv66[rbp], 0
$LN4@Large_stri:
  0005a	0f b6 85 c0 00
	00 00		 movzx	 eax, BYTE PTR tv66[rbp]

; 2154 :     }

  00061	48 8d a5 d8 00
	00 00		 lea	 rsp, QWORD PTR [rbp+216]
  00068	5f		 pop	 rdi
  00069	5d		 pop	 rbp
  0006a	c3		 ret	 0
?_Large_string_engaged@?$_String_val@U?$_Simple_types@D@std@@@std@@QEBA_NXZ ENDP ; std::_String_val<std::_Simple_types<char> >::_Large_string_engaged
_TEXT	ENDS
; Function compile flags: /Odtp /RTCsu /ZI
; File C:\Program Files (x86)\Microsoft Visual Studio\2019\Community\VC\Tools\MSVC\14.27.29110\include\xstring
;	COMDAT ?_Myptr@?$_String_val@U?$_Simple_types@D@std@@@std@@QEAAPEADXZ
_TEXT	SEGMENT
_Result$ = 8
this$ = 256
?_Myptr@?$_String_val@U?$_Simple_types@D@std@@@std@@QEAAPEADXZ PROC ; std::_String_val<std::_Simple_types<char> >::_Myptr, COMDAT

; 2134 :     value_type* _Myptr() noexcept {

$LN4:
  00000	48 89 4c 24 08	 mov	 QWORD PTR [rsp+8], rcx
  00005	55		 push	 rbp
  00006	57		 push	 rdi
  00007	48 81 ec 08 01
	00 00		 sub	 rsp, 264		; 00000108H
  0000e	48 8d 6c 24 20	 lea	 rbp, QWORD PTR [rsp+32]
  00013	48 8b fc	 mov	 rdi, rsp
  00016	b9 42 00 00 00	 mov	 ecx, 66			; 00000042H
  0001b	b8 cc cc cc cc	 mov	 eax, -858993460		; ccccccccH
  00020	f3 ab		 rep stosd
  00022	48 8b 8c 24 28
	01 00 00	 mov	 rcx, QWORD PTR [rsp+296]
  0002a	48 8d 0d 00 00
	00 00		 lea	 rcx, OFFSET FLAT:__D15AFF60_xstring
  00031	e8 00 00 00 00	 call	 __CheckForDebuggerJustMyCode

; 2135 :         value_type* _Result = _Bx._Buf;

  00036	48 8b 85 00 01
	00 00		 mov	 rax, QWORD PTR this$[rbp]
  0003d	48 83 c0 08	 add	 rax, 8
  00041	48 89 45 08	 mov	 QWORD PTR _Result$[rbp], rax

; 2136 :         if (_Large_string_engaged()) {

  00045	48 8b 8d 00 01
	00 00		 mov	 rcx, QWORD PTR this$[rbp]
  0004c	e8 00 00 00 00	 call	 ?_Large_string_engaged@?$_String_val@U?$_Simple_types@D@std@@@std@@QEBA_NXZ ; std::_String_val<std::_Simple_types<char> >::_Large_string_engaged
  00051	0f b6 c0	 movzx	 eax, al
  00054	85 c0		 test	 eax, eax
  00056	74 14		 je	 SHORT $LN2@Myptr

; 2137 :             _Result = _Unfancy(_Bx._Ptr);

  00058	48 8b 85 00 01
	00 00		 mov	 rax, QWORD PTR this$[rbp]
  0005f	48 8b 48 08	 mov	 rcx, QWORD PTR [rax+8]
  00063	e8 00 00 00 00	 call	 ??$_Unfancy@D@std@@YAPEADPEAD@Z ; std::_Unfancy<char>
  00068	48 89 45 08	 mov	 QWORD PTR _Result$[rbp], rax
$LN2@Myptr:

; 2138 :         }
; 2139 : 
; 2140 :         return _Result;

  0006c	48 8b 45 08	 mov	 rax, QWORD PTR _Result$[rbp]

; 2141 :     }

  00070	48 8d a5 e8 00
	00 00		 lea	 rsp, QWORD PTR [rbp+232]
  00077	5f		 pop	 rdi
  00078	5d		 pop	 rbp
  00079	c3		 ret	 0
?_Myptr@?$_String_val@U?$_Simple_types@D@std@@@std@@QEAAPEADXZ ENDP ; std::_String_val<std::_Simple_types<char> >::_Myptr
_TEXT	ENDS
; Function compile flags: /Odtp /RTCsu /ZI
; File C:\Program Files (x86)\Microsoft Visual Studio\2019\Community\VC\Tools\MSVC\14.27.29110\include\xstring
;	COMDAT ??0?$_String_val@U?$_Simple_types@D@std@@@std@@QEAA@XZ
_TEXT	SEGMENT
this$ = 224
??0?$_String_val@U?$_Simple_types@D@std@@@std@@QEAA@XZ PROC ; std::_String_val<std::_Simple_types<char> >::_String_val<std::_Simple_types<char> >, COMDAT

; 2124 :     _String_val() : _Bx(), _Mysize(0), _Myres(0) {}

$LN4:
  00000	48 89 4c 24 08	 mov	 QWORD PTR [rsp+8], rcx
  00005	55		 push	 rbp
  00006	57		 push	 rdi
  00007	48 81 ec e8 00
	00 00		 sub	 rsp, 232		; 000000e8H
  0000e	48 8d 6c 24 20	 lea	 rbp, QWORD PTR [rsp+32]
  00013	48 8b fc	 mov	 rdi, rsp
  00016	b9 3a 00 00 00	 mov	 ecx, 58			; 0000003aH
  0001b	b8 cc cc cc cc	 mov	 eax, -858993460		; ccccccccH
  00020	f3 ab		 rep stosd
  00022	48 8b 8c 24 08
	01 00 00	 mov	 rcx, QWORD PTR [rsp+264]
  0002a	48 8d 0d 00 00
	00 00		 lea	 rcx, OFFSET FLAT:__D15AFF60_xstring
  00031	e8 00 00 00 00	 call	 __CheckForDebuggerJustMyCode
  00036	48 8b 8d e0 00
	00 00		 mov	 rcx, QWORD PTR this$[rbp]
  0003d	e8 00 00 00 00	 call	 ??0_Container_base12@std@@QEAA@XZ ; std::_Container_base12::_Container_base12
  00042	48 8b 85 e0 00
	00 00		 mov	 rax, QWORD PTR this$[rbp]
  00049	48 83 c0 08	 add	 rax, 8
  0004d	48 8b c8	 mov	 rcx, rax
  00050	e8 00 00 00 00	 call	 ??0_Bxty@?$_String_val@U?$_Simple_types@D@std@@@std@@QEAA@XZ ; std::_String_val<std::_Simple_types<char> >::_Bxty::_Bxty
  00055	48 8b 85 e0 00
	00 00		 mov	 rax, QWORD PTR this$[rbp]
  0005c	48 c7 40 18 00
	00 00 00	 mov	 QWORD PTR [rax+24], 0
  00064	48 8b 85 e0 00
	00 00		 mov	 rax, QWORD PTR this$[rbp]
  0006b	48 c7 40 20 00
	00 00 00	 mov	 QWORD PTR [rax+32], 0
  00073	48 8b 85 e0 00
	00 00		 mov	 rax, QWORD PTR this$[rbp]
  0007a	48 8d a5 c8 00
	00 00		 lea	 rsp, QWORD PTR [rbp+200]
  00081	5f		 pop	 rdi
  00082	5d		 pop	 rbp
  00083	c3		 ret	 0
??0?$_String_val@U?$_Simple_types@D@std@@@std@@QEAA@XZ ENDP ; std::_String_val<std::_Simple_types<char> >::_String_val<std::_Simple_types<char> >
_TEXT	ENDS
; Function compile flags: /Odtp /RTCsu /ZI
; File C:\Program Files (x86)\Microsoft Visual Studio\2019\Community\VC\Tools\MSVC\14.27.29110\include\xmemory
;	COMDAT ?max_size@?$_Default_allocator_traits@V?$allocator@D@std@@@std@@SA_KAEBV?$allocator@D@2@@Z
_TEXT	SEGMENT
__formal$ = 224
?max_size@?$_Default_allocator_traits@V?$allocator@D@std@@@std@@SA_KAEBV?$allocator@D@2@@Z PROC ; std::_Default_allocator_traits<std::allocator<char> >::max_size, COMDAT

; 702  :     _NODISCARD static size_type max_size(const _Alloc&) noexcept {

$LN3:
  00000	48 89 4c 24 08	 mov	 QWORD PTR [rsp+8], rcx
  00005	55		 push	 rbp
  00006	57		 push	 rdi
  00007	48 81 ec e8 00
	00 00		 sub	 rsp, 232		; 000000e8H
  0000e	48 8d 6c 24 20	 lea	 rbp, QWORD PTR [rsp+32]
  00013	48 8b fc	 mov	 rdi, rsp
  00016	b9 3a 00 00 00	 mov	 ecx, 58			; 0000003aH
  0001b	b8 cc cc cc cc	 mov	 eax, -858993460		; ccccccccH
  00020	f3 ab		 rep stosd
  00022	48 8b 8c 24 08
	01 00 00	 mov	 rcx, QWORD PTR [rsp+264]
  0002a	48 8d 0d 00 00
	00 00		 lea	 rcx, OFFSET FLAT:__A58979FC_xmemory
  00031	e8 00 00 00 00	 call	 __CheckForDebuggerJustMyCode

; 703  :         return static_cast<size_t>(-1) / sizeof(value_type);

  00036	48 c7 c0 ff ff
	ff ff		 mov	 rax, -1

; 704  :     }

  0003d	48 8d a5 c8 00
	00 00		 lea	 rsp, QWORD PTR [rbp+200]
  00044	5f		 pop	 rdi
  00045	5d		 pop	 rbp
  00046	c3		 ret	 0
?max_size@?$_Default_allocator_traits@V?$allocator@D@std@@@std@@SA_KAEBV?$allocator@D@2@@Z ENDP ; std::_Default_allocator_traits<std::allocator<char> >::max_size
_TEXT	ENDS
; Function compile flags: /Odtp /RTCsu /ZI
; File C:\Program Files (x86)\Microsoft Visual Studio\2019\Community\VC\Tools\MSVC\14.27.29110\include\xmemory
;	COMDAT ?allocate@?$allocator@D@std@@QEAAPEAD_K@Z
_TEXT	SEGMENT
this$ = 224
_Count$ = 232
?allocate@?$allocator@D@std@@QEAAPEAD_K@Z PROC		; std::allocator<char>::allocate, COMDAT

; 806  :     _NODISCARD __declspec(allocator) _Ty* allocate(_CRT_GUARDOVERFLOW const size_t _Count) {

$LN3:
  00000	48 89 54 24 10	 mov	 QWORD PTR [rsp+16], rdx
  00005	48 89 4c 24 08	 mov	 QWORD PTR [rsp+8], rcx
  0000a	55		 push	 rbp
  0000b	57		 push	 rdi
  0000c	48 81 ec e8 00
	00 00		 sub	 rsp, 232		; 000000e8H
  00013	48 8d 6c 24 20	 lea	 rbp, QWORD PTR [rsp+32]
  00018	48 8b fc	 mov	 rdi, rsp
  0001b	b9 3a 00 00 00	 mov	 ecx, 58			; 0000003aH
  00020	b8 cc cc cc cc	 mov	 eax, -858993460		; ccccccccH
  00025	f3 ab		 rep stosd
  00027	48 8b 8c 24 08
	01 00 00	 mov	 rcx, QWORD PTR [rsp+264]
  0002f	48 8d 0d 00 00
	00 00		 lea	 rcx, OFFSET FLAT:__A58979FC_xmemory
  00036	e8 00 00 00 00	 call	 __CheckForDebuggerJustMyCode

; 807  :         return static_cast<_Ty*>(_Allocate<_New_alignof<_Ty>>(_Get_size_of_n<sizeof(_Ty)>(_Count)));

  0003b	48 8b 8d e8 00
	00 00		 mov	 rcx, QWORD PTR _Count$[rbp]
  00042	e8 00 00 00 00	 call	 ??$_Get_size_of_n@$00@std@@YA_K_K@Z ; std::_Get_size_of_n<1>
  00047	48 8b c8	 mov	 rcx, rax
  0004a	e8 00 00 00 00	 call	 ??$_Allocate@$0BA@U_Default_allocate_traits@std@@$0A@@std@@YAPEAX_K@Z ; std::_Allocate<16,std::_Default_allocate_traits,0>

; 808  :     }

  0004f	48 8d a5 c8 00
	00 00		 lea	 rsp, QWORD PTR [rbp+200]
  00056	5f		 pop	 rdi
  00057	5d		 pop	 rbp
  00058	c3		 ret	 0
?allocate@?$allocator@D@std@@QEAAPEAD_K@Z ENDP		; std::allocator<char>::allocate
_TEXT	ENDS
; Function compile flags: /Odtp /RTCsu /ZI
; File C:\Program Files (x86)\Microsoft Visual Studio\2019\Community\VC\Tools\MSVC\14.27.29110\include\xmemory
;	COMDAT ?deallocate@?$allocator@D@std@@QEAAXQEAD_K@Z
_TEXT	SEGMENT
this$ = 224
_Ptr$ = 232
_Count$ = 240
?deallocate@?$allocator@D@std@@QEAAXQEAD_K@Z PROC	; std::allocator<char>::deallocate, COMDAT

; 801  :     void deallocate(_Ty* const _Ptr, const size_t _Count) {

$LN3:
  00000	4c 89 44 24 18	 mov	 QWORD PTR [rsp+24], r8
  00005	48 89 54 24 10	 mov	 QWORD PTR [rsp+16], rdx
  0000a	48 89 4c 24 08	 mov	 QWORD PTR [rsp+8], rcx
  0000f	55		 push	 rbp
  00010	57		 push	 rdi
  00011	48 81 ec e8 00
	00 00		 sub	 rsp, 232		; 000000e8H
  00018	48 8d 6c 24 20	 lea	 rbp, QWORD PTR [rsp+32]
  0001d	48 8b fc	 mov	 rdi, rsp
  00020	b9 3a 00 00 00	 mov	 ecx, 58			; 0000003aH
  00025	b8 cc cc cc cc	 mov	 eax, -858993460		; ccccccccH
  0002a	f3 ab		 rep stosd
  0002c	48 8b 8c 24 08
	01 00 00	 mov	 rcx, QWORD PTR [rsp+264]
  00034	48 8d 0d 00 00
	00 00		 lea	 rcx, OFFSET FLAT:__A58979FC_xmemory
  0003b	e8 00 00 00 00	 call	 __CheckForDebuggerJustMyCode

; 802  :         // no overflow check on the following multiply; we assume _Allocate did that check
; 803  :         _Deallocate<_New_alignof<_Ty>>(_Ptr, sizeof(_Ty) * _Count);

  00040	48 8b 95 f0 00
	00 00		 mov	 rdx, QWORD PTR _Count$[rbp]
  00047	48 8b 8d e8 00
	00 00		 mov	 rcx, QWORD PTR _Ptr$[rbp]
  0004e	e8 00 00 00 00	 call	 ??$_Deallocate@$0BA@$0A@@std@@YAXPEAX_K@Z ; std::_Deallocate<16,0>

; 804  :     }

  00053	48 8d a5 c8 00
	00 00		 lea	 rsp, QWORD PTR [rbp+200]
  0005a	5f		 pop	 rdi
  0005b	5d		 pop	 rbp
  0005c	c3		 ret	 0
?deallocate@?$allocator@D@std@@QEAAXQEAD_K@Z ENDP	; std::allocator<char>::deallocate
_TEXT	ENDS
; Function compile flags: /Odtp /RTCsu /ZI
; File C:\Program Files (x86)\Microsoft Visual Studio\2019\Community\VC\Tools\MSVC\14.27.29110\include\xmemory
;	COMDAT ??0?$allocator@D@std@@QEAA@XZ
_TEXT	SEGMENT
this$ = 224
??0?$allocator@D@std@@QEAA@XZ PROC			; std::allocator<char>::allocator<char>, COMDAT

; 795  :     constexpr allocator() noexcept {}

$LN3:
  00000	48 89 4c 24 08	 mov	 QWORD PTR [rsp+8], rcx
  00005	55		 push	 rbp
  00006	57		 push	 rdi
  00007	48 81 ec e8 00
	00 00		 sub	 rsp, 232		; 000000e8H
  0000e	48 8d 6c 24 20	 lea	 rbp, QWORD PTR [rsp+32]
  00013	48 8b fc	 mov	 rdi, rsp
  00016	b9 3a 00 00 00	 mov	 ecx, 58			; 0000003aH
  0001b	b8 cc cc cc cc	 mov	 eax, -858993460		; ccccccccH
  00020	f3 ab		 rep stosd
  00022	48 8b 8c 24 08
	01 00 00	 mov	 rcx, QWORD PTR [rsp+264]
  0002a	48 8d 0d 00 00
	00 00		 lea	 rcx, OFFSET FLAT:__A58979FC_xmemory
  00031	e8 00 00 00 00	 call	 __CheckForDebuggerJustMyCode
  00036	48 8b 85 e0 00
	00 00		 mov	 rax, QWORD PTR this$[rbp]
  0003d	48 8d a5 c8 00
	00 00		 lea	 rsp, QWORD PTR [rbp+200]
  00044	5f		 pop	 rdi
  00045	5d		 pop	 rbp
  00046	c3		 ret	 0
??0?$allocator@D@std@@QEAA@XZ ENDP			; std::allocator<char>::allocator<char>
_TEXT	ENDS
; Function compile flags: /Odtp /RTCsu /ZI
; File C:\Program Files (x86)\Microsoft Visual Studio\2019\Community\VC\Tools\MSVC\14.27.29110\include\xstring
;	COMDAT ?_Xlen_string@std@@YAXXZ
_TEXT	SEGMENT
?_Xlen_string@std@@YAXXZ PROC				; std::_Xlen_string, COMDAT

; 2200 : [[noreturn]] inline void _Xlen_string() {

$LN3:
  00000	40 55		 push	 rbp
  00002	57		 push	 rdi
  00003	48 81 ec e8 00
	00 00		 sub	 rsp, 232		; 000000e8H
  0000a	48 8d 6c 24 20	 lea	 rbp, QWORD PTR [rsp+32]
  0000f	48 8b fc	 mov	 rdi, rsp
  00012	b9 3a 00 00 00	 mov	 ecx, 58			; 0000003aH
  00017	b8 cc cc cc cc	 mov	 eax, -858993460		; ccccccccH
  0001c	f3 ab		 rep stosd
  0001e	48 8d 0d 00 00
	00 00		 lea	 rcx, OFFSET FLAT:__D15AFF60_xstring
  00025	e8 00 00 00 00	 call	 __CheckForDebuggerJustMyCode

; 2201 :     _Xlength_error("string too long");

  0002a	48 8d 0d 00 00
	00 00		 lea	 rcx, OFFSET FLAT:??_C@_0BA@JFNIOLAK@string?5too?5long@
  00031	e8 00 00 00 00	 call	 ?_Xlength_error@std@@YAXPEBD@Z ; std::_Xlength_error
$LN2@Xlen_strin:

; 2202 : }

  00036	48 8d a5 c8 00
	00 00		 lea	 rsp, QWORD PTR [rbp+200]
  0003d	5f		 pop	 rdi
  0003e	5d		 pop	 rbp
  0003f	c3		 ret	 0
?_Xlen_string@std@@YAXXZ ENDP				; std::_Xlen_string
_TEXT	ENDS
; Function compile flags: /Odtp /RTCsu /ZI
; File C:\Program Files (x86)\Microsoft Visual Studio\2019\Community\VC\Tools\MSVC\14.27.29110\include\xstring
;	COMDAT ?eof@?$_Narrow_char_traits@DH@std@@SAHXZ
_TEXT	SEGMENT
?eof@?$_Narrow_char_traits@DH@std@@SAHXZ PROC		; std::_Narrow_char_traits<char,int>::eof, COMDAT

; 400  :     _NODISCARD static constexpr int_type eof() noexcept {

$LN3:
  00000	40 55		 push	 rbp
  00002	57		 push	 rdi
  00003	48 81 ec e8 00
	00 00		 sub	 rsp, 232		; 000000e8H
  0000a	48 8d 6c 24 20	 lea	 rbp, QWORD PTR [rsp+32]
  0000f	48 8b fc	 mov	 rdi, rsp
  00012	b9 3a 00 00 00	 mov	 ecx, 58			; 0000003aH
  00017	b8 cc cc cc cc	 mov	 eax, -858993460		; ccccccccH
  0001c	f3 ab		 rep stosd
  0001e	48 8d 0d 00 00
	00 00		 lea	 rcx, OFFSET FLAT:__D15AFF60_xstring
  00025	e8 00 00 00 00	 call	 __CheckForDebuggerJustMyCode

; 401  :         return static_cast<int_type>(EOF);

  0002a	b8 ff ff ff ff	 mov	 eax, -1

; 402  :     }

  0002f	48 8d a5 c8 00
	00 00		 lea	 rsp, QWORD PTR [rbp+200]
  00036	5f		 pop	 rdi
  00037	5d		 pop	 rbp
  00038	c3		 ret	 0
?eof@?$_Narrow_char_traits@DH@std@@SAHXZ ENDP		; std::_Narrow_char_traits<char,int>::eof
_TEXT	ENDS
; Function compile flags: /Odtp /RTCsu /ZI
; File C:\Program Files (x86)\Microsoft Visual Studio\2019\Community\VC\Tools\MSVC\14.27.29110\include\xstring
;	COMDAT ?eq_int_type@?$_Narrow_char_traits@DH@std@@SA_NAEBH0@Z
_TEXT	SEGMENT
tv65 = 192
_Left$ = 240
_Right$ = 248
?eq_int_type@?$_Narrow_char_traits@DH@std@@SA_NAEBH0@Z PROC ; std::_Narrow_char_traits<char,int>::eq_int_type, COMDAT

; 392  :     _NODISCARD static constexpr bool eq_int_type(const int_type& _Left, const int_type& _Right) noexcept {

$LN5:
  00000	48 89 54 24 10	 mov	 QWORD PTR [rsp+16], rdx
  00005	48 89 4c 24 08	 mov	 QWORD PTR [rsp+8], rcx
  0000a	55		 push	 rbp
  0000b	57		 push	 rdi
  0000c	48 81 ec f8 00
	00 00		 sub	 rsp, 248		; 000000f8H
  00013	48 8d 6c 24 20	 lea	 rbp, QWORD PTR [rsp+32]
  00018	48 8b fc	 mov	 rdi, rsp
  0001b	b9 3e 00 00 00	 mov	 ecx, 62			; 0000003eH
  00020	b8 cc cc cc cc	 mov	 eax, -858993460		; ccccccccH
  00025	f3 ab		 rep stosd
  00027	48 8b 8c 24 18
	01 00 00	 mov	 rcx, QWORD PTR [rsp+280]
  0002f	48 8d 0d 00 00
	00 00		 lea	 rcx, OFFSET FLAT:__D15AFF60_xstring
  00036	e8 00 00 00 00	 call	 __CheckForDebuggerJustMyCode

; 393  :         return _Left == _Right;

  0003b	48 8b 85 f0 00
	00 00		 mov	 rax, QWORD PTR _Left$[rbp]
  00042	48 8b 8d f8 00
	00 00		 mov	 rcx, QWORD PTR _Right$[rbp]
  00049	8b 09		 mov	 ecx, DWORD PTR [rcx]
  0004b	39 08		 cmp	 DWORD PTR [rax], ecx
  0004d	75 0c		 jne	 SHORT $LN3@eq_int_typ
  0004f	c7 85 c0 00 00
	00 01 00 00 00	 mov	 DWORD PTR tv65[rbp], 1
  00059	eb 0a		 jmp	 SHORT $LN4@eq_int_typ
$LN3@eq_int_typ:
  0005b	c7 85 c0 00 00
	00 00 00 00 00	 mov	 DWORD PTR tv65[rbp], 0
$LN4@eq_int_typ:
  00065	0f b6 85 c0 00
	00 00		 movzx	 eax, BYTE PTR tv65[rbp]

; 394  :     }

  0006c	48 8d a5 d8 00
	00 00		 lea	 rsp, QWORD PTR [rbp+216]
  00073	5f		 pop	 rdi
  00074	5d		 pop	 rbp
  00075	c3		 ret	 0
?eq_int_type@?$_Narrow_char_traits@DH@std@@SA_NAEBH0@Z ENDP ; std::_Narrow_char_traits<char,int>::eq_int_type
_TEXT	ENDS
; Function compile flags: /Odtp /RTCsu /ZI
; File C:\Program Files (x86)\Microsoft Visual Studio\2019\Community\VC\Tools\MSVC\14.27.29110\include\xstring
;	COMDAT ?assign@?$_Narrow_char_traits@DH@std@@SAXAEADAEBD@Z
_TEXT	SEGMENT
_Left$ = 224
_Right$ = 232
?assign@?$_Narrow_char_traits@DH@std@@SAXAEADAEBD@Z PROC ; std::_Narrow_char_traits<char,int>::assign, COMDAT

; 372  :     static _CONSTEXPR17 void assign(_Elem& _Left, const _Elem& _Right) noexcept {

$LN3:
  00000	48 89 54 24 10	 mov	 QWORD PTR [rsp+16], rdx
  00005	48 89 4c 24 08	 mov	 QWORD PTR [rsp+8], rcx
  0000a	55		 push	 rbp
  0000b	57		 push	 rdi
  0000c	48 81 ec e8 00
	00 00		 sub	 rsp, 232		; 000000e8H
  00013	48 8d 6c 24 20	 lea	 rbp, QWORD PTR [rsp+32]
  00018	48 8b fc	 mov	 rdi, rsp
  0001b	b9 3a 00 00 00	 mov	 ecx, 58			; 0000003aH
  00020	b8 cc cc cc cc	 mov	 eax, -858993460		; ccccccccH
  00025	f3 ab		 rep stosd
  00027	48 8b 8c 24 08
	01 00 00	 mov	 rcx, QWORD PTR [rsp+264]
  0002f	48 8d 0d 00 00
	00 00		 lea	 rcx, OFFSET FLAT:__D15AFF60_xstring
  00036	e8 00 00 00 00	 call	 __CheckForDebuggerJustMyCode

; 373  :         _Left = _Right;

  0003b	48 8b 85 e0 00
	00 00		 mov	 rax, QWORD PTR _Left$[rbp]
  00042	48 8b 8d e8 00
	00 00		 mov	 rcx, QWORD PTR _Right$[rbp]
  00049	0f b6 09	 movzx	 ecx, BYTE PTR [rcx]
  0004c	88 08		 mov	 BYTE PTR [rax], cl

; 374  :     }

  0004e	48 8d a5 c8 00
	00 00		 lea	 rsp, QWORD PTR [rbp+200]
  00055	5f		 pop	 rdi
  00056	5d		 pop	 rbp
  00057	c3		 ret	 0
?assign@?$_Narrow_char_traits@DH@std@@SAXAEADAEBD@Z ENDP ; std::_Narrow_char_traits<char,int>::assign
_TEXT	ENDS
; Function compile flags: /Odtp /RTCsu /ZI
; File C:\Program Files (x86)\Microsoft Visual Studio\2019\Community\VC\Tools\MSVC\14.27.29110\include\xstring
;	COMDAT ?move@?$_Narrow_char_traits@DH@std@@SAPEADQEADQEBD_K@Z
_TEXT	SEGMENT
_First1$ = 224
_First2$ = 232
_Count$ = 240
?move@?$_Narrow_char_traits@DH@std@@SAPEADQEADQEBD_K@Z PROC ; std::_Narrow_char_traits<char,int>::move, COMDAT

; 361  :         const size_t _Count) noexcept /* strengthened */ {

$LN3:
  00000	4c 89 44 24 18	 mov	 QWORD PTR [rsp+24], r8
  00005	48 89 54 24 10	 mov	 QWORD PTR [rsp+16], rdx
  0000a	48 89 4c 24 08	 mov	 QWORD PTR [rsp+8], rcx
  0000f	55		 push	 rbp
  00010	57		 push	 rdi
  00011	48 81 ec e8 00
	00 00		 sub	 rsp, 232		; 000000e8H
  00018	48 8d 6c 24 20	 lea	 rbp, QWORD PTR [rsp+32]
  0001d	48 8b fc	 mov	 rdi, rsp
  00020	b9 3a 00 00 00	 mov	 ecx, 58			; 0000003aH
  00025	b8 cc cc cc cc	 mov	 eax, -858993460		; ccccccccH
  0002a	f3 ab		 rep stosd
  0002c	48 8b 8c 24 08
	01 00 00	 mov	 rcx, QWORD PTR [rsp+264]
  00034	48 8d 0d 00 00
	00 00		 lea	 rcx, OFFSET FLAT:__D15AFF60_xstring
  0003b	e8 00 00 00 00	 call	 __CheckForDebuggerJustMyCode

; 362  :         // copy [_First2, _First2 + _Count) to [_First1, ...)
; 363  :         return static_cast<_Elem*>(_CSTD memmove(_First1, _First2, _Count));

  00040	4c 8b 85 f0 00
	00 00		 mov	 r8, QWORD PTR _Count$[rbp]
  00047	48 8b 95 e8 00
	00 00		 mov	 rdx, QWORD PTR _First2$[rbp]
  0004e	48 8b 8d e0 00
	00 00		 mov	 rcx, QWORD PTR _First1$[rbp]
  00055	e8 00 00 00 00	 call	 memmove
  0005a	90		 npad	 1

; 364  :     }

  0005b	48 8d a5 c8 00
	00 00		 lea	 rsp, QWORD PTR [rbp+200]
  00062	5f		 pop	 rdi
  00063	5d		 pop	 rbp
  00064	c3		 ret	 0
?move@?$_Narrow_char_traits@DH@std@@SAPEADQEADQEBD_K@Z ENDP ; std::_Narrow_char_traits<char,int>::move
_TEXT	ENDS
; Function compile flags: /Odtp /RTCsu /ZI
; File C:\Program Files (x86)\Microsoft Visual Studio\2019\Community\VC\Tools\MSVC\14.27.29110\include\xstring
;	COMDAT ?copy@?$_Narrow_char_traits@DH@std@@SAPEADQEADQEBD_K@Z
_TEXT	SEGMENT
_First1$ = 224
_First2$ = 232
_Count$ = 240
?copy@?$_Narrow_char_traits@DH@std@@SAPEADQEADQEBD_K@Z PROC ; std::_Narrow_char_traits<char,int>::copy, COMDAT

; 326  :         const size_t _Count) noexcept /* strengthened */ {

$LN3:
  00000	4c 89 44 24 18	 mov	 QWORD PTR [rsp+24], r8
  00005	48 89 54 24 10	 mov	 QWORD PTR [rsp+16], rdx
  0000a	48 89 4c 24 08	 mov	 QWORD PTR [rsp+8], rcx
  0000f	55		 push	 rbp
  00010	57		 push	 rdi
  00011	48 81 ec e8 00
	00 00		 sub	 rsp, 232		; 000000e8H
  00018	48 8d 6c 24 20	 lea	 rbp, QWORD PTR [rsp+32]
  0001d	48 8b fc	 mov	 rdi, rsp
  00020	b9 3a 00 00 00	 mov	 ecx, 58			; 0000003aH
  00025	b8 cc cc cc cc	 mov	 eax, -858993460		; ccccccccH
  0002a	f3 ab		 rep stosd
  0002c	48 8b 8c 24 08
	01 00 00	 mov	 rcx, QWORD PTR [rsp+264]
  00034	48 8d 0d 00 00
	00 00		 lea	 rcx, OFFSET FLAT:__D15AFF60_xstring
  0003b	e8 00 00 00 00	 call	 __CheckForDebuggerJustMyCode

; 327  :         // copy [_First2, _First2 + _Count) to [_First1, ...)
; 328  :         return static_cast<_Elem*>(_CSTD memcpy(_First1, _First2, _Count));

  00040	4c 8b 85 f0 00
	00 00		 mov	 r8, QWORD PTR _Count$[rbp]
  00047	48 8b 95 e8 00
	00 00		 mov	 rdx, QWORD PTR _First2$[rbp]
  0004e	48 8b 8d e0 00
	00 00		 mov	 rcx, QWORD PTR _First1$[rbp]
  00055	e8 00 00 00 00	 call	 memcpy
  0005a	90		 npad	 1

; 329  :     }

  0005b	48 8d a5 c8 00
	00 00		 lea	 rsp, QWORD PTR [rbp+200]
  00062	5f		 pop	 rdi
  00063	5d		 pop	 rbp
  00064	c3		 ret	 0
?copy@?$_Narrow_char_traits@DH@std@@SAPEADQEADQEBD_K@Z ENDP ; std::_Narrow_char_traits<char,int>::copy
_TEXT	ENDS
; Function compile flags: /Odtp /RTCsu /ZI
; File C:\Program Files (x86)\Microsoft Visual Studio\2019\Community\VC\Tools\MSVC\14.27.29110\include\xstring
;	COMDAT ?length@?$_Narrow_char_traits@DH@std@@SA_KQEBD@Z
_TEXT	SEGMENT
_First$ = 224
?length@?$_Narrow_char_traits@DH@std@@SA_KQEBD@Z PROC	; std::_Narrow_char_traits<char,int>::length, COMDAT

; 305  :     _NODISCARD static _CONSTEXPR17 size_t length(_In_z_ const _Elem* const _First) noexcept /* strengthened */ {

$LN3:
  00000	48 89 4c 24 08	 mov	 QWORD PTR [rsp+8], rcx
  00005	55		 push	 rbp
  00006	57		 push	 rdi
  00007	48 81 ec e8 00
	00 00		 sub	 rsp, 232		; 000000e8H
  0000e	48 8d 6c 24 20	 lea	 rbp, QWORD PTR [rsp+32]
  00013	48 8b fc	 mov	 rdi, rsp
  00016	b9 3a 00 00 00	 mov	 ecx, 58			; 0000003aH
  0001b	b8 cc cc cc cc	 mov	 eax, -858993460		; ccccccccH
  00020	f3 ab		 rep stosd
  00022	48 8b 8c 24 08
	01 00 00	 mov	 rcx, QWORD PTR [rsp+264]
  0002a	48 8d 0d 00 00
	00 00		 lea	 rcx, OFFSET FLAT:__D15AFF60_xstring
  00031	e8 00 00 00 00	 call	 __CheckForDebuggerJustMyCode

; 306  :         // find length of null-terminated string
; 307  : #if _HAS_CXX17
; 308  : #ifdef __cpp_char8_t
; 309  :         if constexpr (is_same_v<_Elem, char8_t>) {
; 310  : #if _HAS_U8_INTRINSICS
; 311  :             return __builtin_u8strlen(_First);
; 312  : #else // ^^^ use u8 intrinsics / no u8 intrinsics vvv
; 313  :             return _Char_traits<_Elem, _Int_type>::length(_First);
; 314  : #endif // _HAS_U8_INTRINSICS
; 315  :         } else
; 316  : #endif // __cpp_char8_t
; 317  :         {
; 318  :             return __builtin_strlen(_First);
; 319  :         }
; 320  : #else // _HAS_CXX17
; 321  :         return _CSTD strlen(reinterpret_cast<const char*>(_First));

  00036	48 8b 8d e0 00
	00 00		 mov	 rcx, QWORD PTR _First$[rbp]
  0003d	e8 00 00 00 00	 call	 strlen
  00042	90		 npad	 1

; 322  : #endif // _HAS_CXX17
; 323  :     }

  00043	48 8d a5 c8 00
	00 00		 lea	 rsp, QWORD PTR [rbp+200]
  0004a	5f		 pop	 rdi
  0004b	5d		 pop	 rbp
  0004c	c3		 ret	 0
?length@?$_Narrow_char_traits@DH@std@@SA_KQEBD@Z ENDP	; std::_Narrow_char_traits<char,int>::length
_TEXT	ENDS
; Function compile flags: /Odtp /RTCsu /ZI
; File C:\Program Files (x86)\Microsoft Visual Studio\2019\Community\VC\Tools\MSVC\14.27.29110\include\xmemory
;	COMDAT ??$_Construct_in_place@U_Container_proxy@std@@PEAU_Container_base12@2@@std@@YAXAEAU_Container_proxy@0@$$QEAPEAU_Container_base12@0@@Z
_TEXT	SEGMENT
$T1 = 200
_Obj$ = 256
<_Args_0>$ = 264
??$_Construct_in_place@U_Container_proxy@std@@PEAU_Container_base12@2@@std@@YAXAEAU_Container_proxy@0@$$QEAPEAU_Container_base12@0@@Z PROC ; std::_Construct_in_place<std::_Container_proxy,std::_Container_base12 *>, COMDAT

; 228  : void _Construct_in_place(_Ty& _Obj, _Types&&... _Args) noexcept(is_nothrow_constructible_v<_Ty, _Types...>) {

$LN3:
  00000	48 89 54 24 10	 mov	 QWORD PTR [rsp+16], rdx
  00005	48 89 4c 24 08	 mov	 QWORD PTR [rsp+8], rcx
  0000a	55		 push	 rbp
  0000b	57		 push	 rdi
  0000c	48 81 ec 08 01
	00 00		 sub	 rsp, 264		; 00000108H
  00013	48 8d 6c 24 20	 lea	 rbp, QWORD PTR [rsp+32]
  00018	48 8b fc	 mov	 rdi, rsp
  0001b	b9 42 00 00 00	 mov	 ecx, 66			; 00000042H
  00020	b8 cc cc cc cc	 mov	 eax, -858993460		; ccccccccH
  00025	f3 ab		 rep stosd
  00027	48 8b 8c 24 28
	01 00 00	 mov	 rcx, QWORD PTR [rsp+296]
  0002f	48 8d 0d 00 00
	00 00		 lea	 rcx, OFFSET FLAT:__A58979FC_xmemory
  00036	e8 00 00 00 00	 call	 __CheckForDebuggerJustMyCode
  0003b	48 8b 8d 00 01
	00 00		 mov	 rcx, QWORD PTR _Obj$[rbp]
  00042	e8 00 00 00 00	 call	 ??$addressof@U_Container_proxy@std@@@std@@YAPEAU_Container_proxy@0@AEAU10@@Z ; std::addressof<std::_Container_proxy>
  00047	48 8b d0	 mov	 rdx, rax
  0004a	b9 10 00 00 00	 mov	 ecx, 16
  0004f	e8 00 00 00 00	 call	 ??2@YAPEAX_KPEAX@Z	; operator new
  00054	48 89 85 c8 00
	00 00		 mov	 QWORD PTR $T1[rbp], rax
  0005b	48 8b 8d 08 01
	00 00		 mov	 rcx, QWORD PTR <_Args_0>$[rbp]
  00062	e8 00 00 00 00	 call	 ??$forward@PEAU_Container_base12@std@@@std@@YA$$QEAPEAU_Container_base12@0@AEAPEAU10@@Z ; std::forward<std::_Container_base12 *>
  00067	48 8b 10	 mov	 rdx, QWORD PTR [rax]
  0006a	48 8b 8d c8 00
	00 00		 mov	 rcx, QWORD PTR $T1[rbp]
  00071	e8 00 00 00 00	 call	 ??0_Container_proxy@std@@QEAA@PEAU_Container_base12@1@@Z ; std::_Container_proxy::_Container_proxy
  00076	90		 npad	 1

; 229  :     ::new (const_cast<void*>(static_cast<const volatile void*>(_STD addressof(_Obj))))
; 230  :         _Ty(_STD forward<_Types>(_Args)...);
; 231  : }

  00077	48 8d a5 e8 00
	00 00		 lea	 rsp, QWORD PTR [rbp+232]
  0007e	5f		 pop	 rdi
  0007f	5d		 pop	 rbp
  00080	c3		 ret	 0
??$_Construct_in_place@U_Container_proxy@std@@PEAU_Container_base12@2@@std@@YAXAEAU_Container_proxy@0@$$QEAPEAU_Container_base12@0@@Z ENDP ; std::_Construct_in_place<std::_Container_proxy,std::_Container_base12 *>
_TEXT	ENDS
; Function compile flags: /Odtp /RTCsu /ZI
; File C:\Program Files (x86)\Microsoft Visual Studio\2019\Community\VC\Tools\MSVC\14.27.29110\include\xstddef
;	COMDAT ??$addressof@U_Container_base12@std@@@std@@YAPEAU_Container_base12@0@AEAU10@@Z
_TEXT	SEGMENT
_Val$ = 224
??$addressof@U_Container_base12@std@@@std@@YAPEAU_Container_base12@0@AEAU10@@Z PROC ; std::addressof<std::_Container_base12>, COMDAT

; 274  : _NODISCARD constexpr _Ty* addressof(_Ty& _Val) noexcept {

$LN3:
  00000	48 89 4c 24 08	 mov	 QWORD PTR [rsp+8], rcx
  00005	55		 push	 rbp
  00006	57		 push	 rdi
  00007	48 81 ec e8 00
	00 00		 sub	 rsp, 232		; 000000e8H
  0000e	48 8d 6c 24 20	 lea	 rbp, QWORD PTR [rsp+32]
  00013	48 8b fc	 mov	 rdi, rsp
  00016	b9 3a 00 00 00	 mov	 ecx, 58			; 0000003aH
  0001b	b8 cc cc cc cc	 mov	 eax, -858993460		; ccccccccH
  00020	f3 ab		 rep stosd
  00022	48 8b 8c 24 08
	01 00 00	 mov	 rcx, QWORD PTR [rsp+264]
  0002a	48 8d 0d 00 00
	00 00		 lea	 rcx, OFFSET FLAT:__38038D2D_xstddef
  00031	e8 00 00 00 00	 call	 __CheckForDebuggerJustMyCode

; 275  :     return __builtin_addressof(_Val);

  00036	48 8b 85 e0 00
	00 00		 mov	 rax, QWORD PTR _Val$[rbp]

; 276  : }

  0003d	48 8d a5 c8 00
	00 00		 lea	 rsp, QWORD PTR [rbp+200]
  00044	5f		 pop	 rdi
  00045	5d		 pop	 rbp
  00046	c3		 ret	 0
??$addressof@U_Container_base12@std@@@std@@YAPEAU_Container_base12@0@AEAU10@@Z ENDP ; std::addressof<std::_Container_base12>
_TEXT	ENDS
; Function compile flags: /Odtp /RTCsu /ZI
; File C:\Program Files (x86)\Microsoft Visual Studio\2019\Community\VC\Tools\MSVC\14.27.29110\include\xmemory
;	COMDAT ?_Release@_Basic_container_proxy_ptr12@std@@QEAAXXZ
_TEXT	SEGMENT
this$ = 224
?_Release@_Basic_container_proxy_ptr12@std@@QEAAXXZ PROC ; std::_Basic_container_proxy_ptr12::_Release, COMDAT

; 1266 :     void _Release() noexcept { // disengage this _Basic_container_proxy_ptr12

$LN3:
  00000	48 89 4c 24 08	 mov	 QWORD PTR [rsp+8], rcx
  00005	55		 push	 rbp
  00006	57		 push	 rdi
  00007	48 81 ec e8 00
	00 00		 sub	 rsp, 232		; 000000e8H
  0000e	48 8d 6c 24 20	 lea	 rbp, QWORD PTR [rsp+32]
  00013	48 8b fc	 mov	 rdi, rsp
  00016	b9 3a 00 00 00	 mov	 ecx, 58			; 0000003aH
  0001b	b8 cc cc cc cc	 mov	 eax, -858993460		; ccccccccH
  00020	f3 ab		 rep stosd
  00022	48 8b 8c 24 08
	01 00 00	 mov	 rcx, QWORD PTR [rsp+264]
  0002a	48 8d 0d 00 00
	00 00		 lea	 rcx, OFFSET FLAT:__A58979FC_xmemory
  00031	e8 00 00 00 00	 call	 __CheckForDebuggerJustMyCode

; 1267 :         _Ptr = nullptr;

  00036	48 8b 85 e0 00
	00 00		 mov	 rax, QWORD PTR this$[rbp]
  0003d	48 c7 00 00 00
	00 00		 mov	 QWORD PTR [rax], 0

; 1268 :     }

  00044	48 8d a5 c8 00
	00 00		 lea	 rsp, QWORD PTR [rbp+200]
  0004b	5f		 pop	 rdi
  0004c	5d		 pop	 rbp
  0004d	c3		 ret	 0
?_Release@_Basic_container_proxy_ptr12@std@@QEAAXXZ ENDP ; std::_Basic_container_proxy_ptr12::_Release
_TEXT	ENDS
; Function compile flags: /Odtp /RTCsu /ZI
; File C:\Program Files (x86)\Microsoft Visual Studio\2019\Community\VC\Tools\MSVC\14.27.29110\include\xmemory
;	COMDAT ?_Orphan_all@_Container_base12@std@@QEAAXXZ
_TEXT	SEGMENT
_Lock$4 = 4
_Pnext$5 = 40
__$ArrayPad$ = 248
this$ = 288
?_Orphan_all@_Container_base12@std@@QEAAXXZ PROC	; std::_Container_base12::_Orphan_all, COMDAT

; 1205 : inline void _Container_base12::_Orphan_all() noexcept {

$LN7:
  00000	48 89 4c 24 08	 mov	 QWORD PTR [rsp+8], rcx
  00005	55		 push	 rbp
  00006	57		 push	 rdi
  00007	48 81 ec 28 01
	00 00		 sub	 rsp, 296		; 00000128H
  0000e	48 8d 6c 24 20	 lea	 rbp, QWORD PTR [rsp+32]
  00013	48 8b fc	 mov	 rdi, rsp
  00016	b9 4a 00 00 00	 mov	 ecx, 74			; 0000004aH
  0001b	b8 cc cc cc cc	 mov	 eax, -858993460		; ccccccccH
  00020	f3 ab		 rep stosd
  00022	48 8b 8c 24 48
	01 00 00	 mov	 rcx, QWORD PTR [rsp+328]
  0002a	48 8b 05 00 00
	00 00		 mov	 rax, QWORD PTR __security_cookie
  00031	48 33 c5	 xor	 rax, rbp
  00034	48 89 85 f8 00
	00 00		 mov	 QWORD PTR __$ArrayPad$[rbp], rax
  0003b	48 8d 0d 00 00
	00 00		 lea	 rcx, OFFSET FLAT:__A58979FC_xmemory
  00042	e8 00 00 00 00	 call	 __CheckForDebuggerJustMyCode

; 1206 : #if _ITERATOR_DEBUG_LEVEL == 2
; 1207 :     if (_Myproxy) { // proxy allocated, drain it

  00047	48 8b 85 20 01
	00 00		 mov	 rax, QWORD PTR this$[rbp]
  0004e	48 83 38 00	 cmp	 QWORD PTR [rax], 0
  00052	74 6b		 je	 SHORT $LN5@Orphan_all

; 1208 :         _Lockit _Lock(_LOCK_DEBUG);

  00054	ba 03 00 00 00	 mov	 edx, 3
  00059	48 8d 4d 04	 lea	 rcx, QWORD PTR _Lock$4[rbp]
  0005d	ff 15 00 00 00
	00		 call	 QWORD PTR __imp_??0_Lockit@std@@QEAA@H@Z

; 1209 : 
; 1210 :         for (auto _Pnext = &_Myproxy->_Myfirstiter; *_Pnext; *_Pnext = (*_Pnext)->_Mynextiter) {

  00063	48 8b 85 20 01
	00 00		 mov	 rax, QWORD PTR this$[rbp]
  0006a	48 8b 00	 mov	 rax, QWORD PTR [rax]
  0006d	48 83 c0 08	 add	 rax, 8
  00071	48 89 45 28	 mov	 QWORD PTR _Pnext$5[rbp], rax
  00075	eb 12		 jmp	 SHORT $LN4@Orphan_all
$LN2@Orphan_all:
  00077	48 8b 45 28	 mov	 rax, QWORD PTR _Pnext$5[rbp]
  0007b	48 8b 00	 mov	 rax, QWORD PTR [rax]
  0007e	48 8b 4d 28	 mov	 rcx, QWORD PTR _Pnext$5[rbp]
  00082	48 8b 40 08	 mov	 rax, QWORD PTR [rax+8]
  00086	48 89 01	 mov	 QWORD PTR [rcx], rax
$LN4@Orphan_all:
  00089	48 8b 45 28	 mov	 rax, QWORD PTR _Pnext$5[rbp]
  0008d	48 83 38 00	 cmp	 QWORD PTR [rax], 0
  00091	74 10		 je	 SHORT $LN3@Orphan_all

; 1211 :             (*_Pnext)->_Myproxy = nullptr;

  00093	48 8b 45 28	 mov	 rax, QWORD PTR _Pnext$5[rbp]
  00097	48 8b 00	 mov	 rax, QWORD PTR [rax]
  0009a	48 c7 00 00 00
	00 00		 mov	 QWORD PTR [rax], 0

; 1212 :         }

  000a1	eb d4		 jmp	 SHORT $LN2@Orphan_all
$LN3@Orphan_all:

; 1213 : 
; 1214 :         _Myproxy->_Myfirstiter = nullptr;

  000a3	48 8b 85 20 01
	00 00		 mov	 rax, QWORD PTR this$[rbp]
  000aa	48 8b 00	 mov	 rax, QWORD PTR [rax]
  000ad	48 c7 40 08 00
	00 00 00	 mov	 QWORD PTR [rax+8], 0

; 1215 :     }

  000b5	48 8d 4d 04	 lea	 rcx, QWORD PTR _Lock$4[rbp]
  000b9	ff 15 00 00 00
	00		 call	 QWORD PTR __imp_??1_Lockit@std@@QEAA@XZ
$LN5@Orphan_all:

; 1216 : #endif // _ITERATOR_DEBUG_LEVEL == 2
; 1217 : }

  000bf	48 8d 4d e0	 lea	 rcx, QWORD PTR [rbp-32]
  000c3	48 8d 15 00 00
	00 00		 lea	 rdx, OFFSET FLAT:?_Orphan_all@_Container_base12@std@@QEAAXXZ$rtcFrameData
  000ca	e8 00 00 00 00	 call	 _RTC_CheckStackVars
  000cf	90		 npad	 1
  000d0	48 8b 8d f8 00
	00 00		 mov	 rcx, QWORD PTR __$ArrayPad$[rbp]
  000d7	48 33 cd	 xor	 rcx, rbp
  000da	e8 00 00 00 00	 call	 __security_check_cookie
  000df	48 8d a5 08 01
	00 00		 lea	 rsp, QWORD PTR [rbp+264]
  000e6	5f		 pop	 rdi
  000e7	5d		 pop	 rbp
  000e8	c3		 ret	 0
?_Orphan_all@_Container_base12@std@@QEAAXXZ ENDP	; std::_Container_base12::_Orphan_all
_TEXT	ENDS
; Function compile flags: /Odtp /RTCsu /ZI
; File C:\Program Files (x86)\Microsoft Visual Studio\2019\Community\VC\Tools\MSVC\14.27.29110\include\xmemory
;	COMDAT ??0_Container_base12@std@@QEAA@XZ
_TEXT	SEGMENT
this$ = 224
??0_Container_base12@std@@QEAA@XZ PROC			; std::_Container_base12::_Container_base12, COMDAT

; 1092 :     _Container_base12() noexcept : _Myproxy(nullptr) {}

$LN3:
  00000	48 89 4c 24 08	 mov	 QWORD PTR [rsp+8], rcx
  00005	55		 push	 rbp
  00006	57		 push	 rdi
  00007	48 81 ec e8 00
	00 00		 sub	 rsp, 232		; 000000e8H
  0000e	48 8d 6c 24 20	 lea	 rbp, QWORD PTR [rsp+32]
  00013	48 8b fc	 mov	 rdi, rsp
  00016	b9 3a 00 00 00	 mov	 ecx, 58			; 0000003aH
  0001b	b8 cc cc cc cc	 mov	 eax, -858993460		; ccccccccH
  00020	f3 ab		 rep stosd
  00022	48 8b 8c 24 08
	01 00 00	 mov	 rcx, QWORD PTR [rsp+264]
  0002a	48 8d 0d 00 00
	00 00		 lea	 rcx, OFFSET FLAT:__A58979FC_xmemory
  00031	e8 00 00 00 00	 call	 __CheckForDebuggerJustMyCode
  00036	48 8b 85 e0 00
	00 00		 mov	 rax, QWORD PTR this$[rbp]
  0003d	48 c7 00 00 00
	00 00		 mov	 QWORD PTR [rax], 0
  00044	48 8b 85 e0 00
	00 00		 mov	 rax, QWORD PTR this$[rbp]
  0004b	48 8d a5 c8 00
	00 00		 lea	 rsp, QWORD PTR [rbp+200]
  00052	5f		 pop	 rdi
  00053	5d		 pop	 rbp
  00054	c3		 ret	 0
??0_Container_base12@std@@QEAA@XZ ENDP			; std::_Container_base12::_Container_base12
_TEXT	ENDS
; Function compile flags: /Odtp /RTCsu /ZI
; File C:\Program Files (x86)\Microsoft Visual Studio\2019\Community\VC\Tools\MSVC\14.27.29110\include\xmemory
;	COMDAT ??0_Container_proxy@std@@QEAA@PEAU_Container_base12@1@@Z
_TEXT	SEGMENT
this$ = 224
_Mycont_$ = 232
??0_Container_proxy@std@@QEAA@PEAU_Container_base12@1@@Z PROC ; std::_Container_proxy::_Container_proxy, COMDAT

; 1084 :     _Container_proxy(_Container_base12* _Mycont_) noexcept : _Mycont(_Mycont_), _Myfirstiter(nullptr) {}

$LN3:
  00000	48 89 54 24 10	 mov	 QWORD PTR [rsp+16], rdx
  00005	48 89 4c 24 08	 mov	 QWORD PTR [rsp+8], rcx
  0000a	55		 push	 rbp
  0000b	57		 push	 rdi
  0000c	48 81 ec e8 00
	00 00		 sub	 rsp, 232		; 000000e8H
  00013	48 8d 6c 24 20	 lea	 rbp, QWORD PTR [rsp+32]
  00018	48 8b fc	 mov	 rdi, rsp
  0001b	b9 3a 00 00 00	 mov	 ecx, 58			; 0000003aH
  00020	b8 cc cc cc cc	 mov	 eax, -858993460		; ccccccccH
  00025	f3 ab		 rep stosd
  00027	48 8b 8c 24 08
	01 00 00	 mov	 rcx, QWORD PTR [rsp+264]
  0002f	48 8d 0d 00 00
	00 00		 lea	 rcx, OFFSET FLAT:__A58979FC_xmemory
  00036	e8 00 00 00 00	 call	 __CheckForDebuggerJustMyCode
  0003b	48 8b 85 e0 00
	00 00		 mov	 rax, QWORD PTR this$[rbp]
  00042	48 8b 8d e8 00
	00 00		 mov	 rcx, QWORD PTR _Mycont_$[rbp]
  00049	48 89 08	 mov	 QWORD PTR [rax], rcx
  0004c	48 8b 85 e0 00
	00 00		 mov	 rax, QWORD PTR this$[rbp]
  00053	48 c7 40 08 00
	00 00 00	 mov	 QWORD PTR [rax+8], 0
  0005b	48 8b 85 e0 00
	00 00		 mov	 rax, QWORD PTR this$[rbp]
  00062	48 8d a5 c8 00
	00 00		 lea	 rsp, QWORD PTR [rbp+200]
  00069	5f		 pop	 rdi
  0006a	5d		 pop	 rbp
  0006b	c3		 ret	 0
??0_Container_proxy@std@@QEAA@PEAU_Container_base12@1@@Z ENDP ; std::_Container_proxy::_Container_proxy
_TEXT	ENDS
; Function compile flags: /Odtp /RTCsu /ZI
; File C:\Program Files (x86)\Microsoft Visual Studio\2019\Community\VC\Tools\MSVC\14.27.29110\include\xmemory
;	COMDAT ??$_Convert_size@_K@std@@YA_K_K@Z
_TEXT	SEGMENT
_Len$ = 224
??$_Convert_size@_K@std@@YA_K_K@Z PROC			; std::_Convert_size<unsigned __int64>, COMDAT

; 990  : _NODISCARD constexpr size_t _Convert_size<size_t>(const size_t _Len) noexcept {

$LN3:
  00000	48 89 4c 24 08	 mov	 QWORD PTR [rsp+8], rcx
  00005	55		 push	 rbp
  00006	57		 push	 rdi
  00007	48 81 ec e8 00
	00 00		 sub	 rsp, 232		; 000000e8H
  0000e	48 8d 6c 24 20	 lea	 rbp, QWORD PTR [rsp+32]
  00013	48 8b fc	 mov	 rdi, rsp
  00016	b9 3a 00 00 00	 mov	 ecx, 58			; 0000003aH
  0001b	b8 cc cc cc cc	 mov	 eax, -858993460		; ccccccccH
  00020	f3 ab		 rep stosd
  00022	48 8b 8c 24 08
	01 00 00	 mov	 rcx, QWORD PTR [rsp+264]
  0002a	48 8d 0d 00 00
	00 00		 lea	 rcx, OFFSET FLAT:__A58979FC_xmemory
  00031	e8 00 00 00 00	 call	 __CheckForDebuggerJustMyCode

; 991  :     // convert size_t to size_t, unchanged
; 992  :     return _Len;

  00036	48 8b 85 e0 00
	00 00		 mov	 rax, QWORD PTR _Len$[rbp]

; 993  : }

  0003d	48 8d a5 c8 00
	00 00		 lea	 rsp, QWORD PTR [rbp+200]
  00044	5f		 pop	 rdi
  00045	5d		 pop	 rbp
  00046	c3		 ret	 0
??$_Convert_size@_K@std@@YA_K_K@Z ENDP			; std::_Convert_size<unsigned __int64>
_TEXT	ENDS
; Function compile flags: /Odtp /RTCsu /ZI
; File C:\Program Files (x86)\Microsoft Visual Studio\2019\Community\VC\Tools\MSVC\14.27.29110\include\xmemory
;	COMDAT ?_Adjust_manually_vector_aligned@std@@YAXAEAPEAXAEA_K@Z
_TEXT	SEGMENT
_Ptr_user$ = 8
_Ptr_container$ = 40
_Min_back_shift$ = 72
_Back_shift$ = 104
_Ptr$ = 352
_Bytes$ = 360
?_Adjust_manually_vector_aligned@std@@YAXAEAPEAXAEA_K@Z PROC ; std::_Adjust_manually_vector_aligned, COMDAT

; 132  : inline void _Adjust_manually_vector_aligned(void*& _Ptr, size_t& _Bytes) {

$LN21:
  00000	48 89 54 24 10	 mov	 QWORD PTR [rsp+16], rdx
  00005	48 89 4c 24 08	 mov	 QWORD PTR [rsp+8], rcx
  0000a	55		 push	 rbp
  0000b	57		 push	 rdi
  0000c	48 81 ec 78 01
	00 00		 sub	 rsp, 376		; 00000178H
  00013	48 8d 6c 24 30	 lea	 rbp, QWORD PTR [rsp+48]
  00018	48 8b fc	 mov	 rdi, rsp
  0001b	b9 5e 00 00 00	 mov	 ecx, 94			; 0000005eH
  00020	b8 cc cc cc cc	 mov	 eax, -858993460		; ccccccccH
  00025	f3 ab		 rep stosd
  00027	48 8b 8c 24 98
	01 00 00	 mov	 rcx, QWORD PTR [rsp+408]
  0002f	48 8d 0d 00 00
	00 00		 lea	 rcx, OFFSET FLAT:__A58979FC_xmemory
  00036	e8 00 00 00 00	 call	 __CheckForDebuggerJustMyCode

; 133  :     // adjust parameters from _Allocate_manually_vector_aligned to pass to operator delete
; 134  :     _Bytes += _Non_user_size;

  0003b	48 8b 85 68 01
	00 00		 mov	 rax, QWORD PTR _Bytes$[rbp]
  00042	48 8b 00	 mov	 rax, QWORD PTR [rax]
  00045	48 83 c0 2f	 add	 rax, 47			; 0000002fH
  00049	48 8b 8d 68 01
	00 00		 mov	 rcx, QWORD PTR _Bytes$[rbp]
  00050	48 89 01	 mov	 QWORD PTR [rcx], rax

; 135  : 
; 136  :     const uintptr_t* const _Ptr_user = reinterpret_cast<uintptr_t*>(_Ptr);

  00053	48 8b 85 60 01
	00 00		 mov	 rax, QWORD PTR _Ptr$[rbp]
  0005a	48 8b 00	 mov	 rax, QWORD PTR [rax]
  0005d	48 89 45 08	 mov	 QWORD PTR _Ptr_user$[rbp], rax

; 137  :     const uintptr_t _Ptr_container   = _Ptr_user[-1];

  00061	b8 08 00 00 00	 mov	 eax, 8
  00066	48 6b c0 ff	 imul	 rax, rax, -1
  0006a	48 8b 4d 08	 mov	 rcx, QWORD PTR _Ptr_user$[rbp]
  0006e	48 8b 04 01	 mov	 rax, QWORD PTR [rcx+rax]
  00072	48 89 45 28	 mov	 QWORD PTR _Ptr_container$[rbp], rax
$LN4@Adjust_man:

; 138  : 
; 139  :     // If the following asserts, it likely means that we are performing
; 140  :     // an aligned delete on memory coming from an unaligned allocation.
; 141  :     _STL_ASSERT(_Ptr_user[-2] == _Big_allocation_sentinel, "invalid argument");

  00076	b8 08 00 00 00	 mov	 eax, 8
  0007b	48 6b c0 fe	 imul	 rax, rax, -2
  0007f	48 8b 4d 08	 mov	 rcx, QWORD PTR _Ptr_user$[rbp]
  00083	48 ba fa fa fa
	fa fa fa fa fa	 mov	 rdx, -361700864190383366 ; fafafafafafafafaH
  0008d	48 39 14 01	 cmp	 QWORD PTR [rcx+rax], rdx
  00091	75 02		 jne	 SHORT $LN14@Adjust_man
  00093	eb 77		 jmp	 SHORT $LN15@Adjust_man
$LN14@Adjust_man:
$LN7@Adjust_man:
  00095	8b 05 00 00 00
	00		 mov	 eax, DWORD PTR ?__LINE__Var@?0??_Adjust_manually_vector_aligned@std@@YAXAEAPEAXAEA_K@Z@4JA
  0009b	83 c0 09	 add	 eax, 9
  0009e	48 8d 0d 00 00
	00 00		 lea	 rcx, OFFSET FLAT:??_C@_0BB@FCMFBGOM@invalid?5argument@
  000a5	48 89 4c 24 28	 mov	 QWORD PTR [rsp+40], rcx
  000aa	48 8d 0d 00 00
	00 00		 lea	 rcx, OFFSET FLAT:??_C@_02DKCKIIND@?$CFs@
  000b1	48 89 4c 24 20	 mov	 QWORD PTR [rsp+32], rcx
  000b6	45 33 c9	 xor	 r9d, r9d
  000b9	44 8b c0	 mov	 r8d, eax
  000bc	48 8d 15 00 00
	00 00		 lea	 rdx, OFFSET FLAT:??_C@_0GI@JMEOMKJO@C?3?2Program?5Files?5?$CIx86?$CJ?2Microsof@
  000c3	b9 02 00 00 00	 mov	 ecx, 2
  000c8	ff 15 00 00 00
	00		 call	 QWORD PTR __imp__CrtDbgReport
  000ce	83 f8 01	 cmp	 eax, 1
  000d1	75 03		 jne	 SHORT $LN19@Adjust_man
  000d3	cc		 int	 3
  000d4	33 c0		 xor	 eax, eax
$LN19@Adjust_man:
  000d6	8b 05 00 00 00
	00		 mov	 eax, DWORD PTR ?__LINE__Var@?0??_Adjust_manually_vector_aligned@std@@YAXAEAPEAXAEA_K@Z@4JA
  000dc	83 c0 09	 add	 eax, 9
  000df	48 c7 44 24 20
	00 00 00 00	 mov	 QWORD PTR [rsp+32], 0
  000e8	44 8b c8	 mov	 r9d, eax
  000eb	4c 8d 05 00 00
	00 00		 lea	 r8, OFFSET FLAT:??_C@_1NA@FEEOBALC@?$AAC?$AA?3?$AA?2?$AAP?$AAr?$AAo?$AAg?$AAr?$AAa?$AAm?$AA?5?$AAF?$AAi?$AAl?$AAe@
  000f2	48 8d 15 00 00
	00 00		 lea	 rdx, OFFSET FLAT:??_C@_1EK@NIFDJFDG@?$AAs?$AAt?$AAd?$AA?3?$AA?3?$AA_?$AAA?$AAd?$AAj?$AAu?$AAs?$AAt?$AA_?$AAm?$AAa@
  000f9	48 8d 0d 00 00
	00 00		 lea	 rcx, OFFSET FLAT:??_C@_1CG@JNLFBNGN@?$AA?$CC?$AAi?$AAn?$AAv?$AAa?$AAl?$AAi?$AAd?$AA?5?$AAa?$AAr?$AAg?$AAu?$AAm?$AAe@
  00100	ff 15 00 00 00
	00		 call	 QWORD PTR __imp__invalid_parameter
  00106	33 c0		 xor	 eax, eax
  00108	85 c0		 test	 eax, eax
  0010a	75 89		 jne	 SHORT $LN7@Adjust_man
$LN15@Adjust_man:
  0010c	33 c0		 xor	 eax, eax
  0010e	85 c0		 test	 eax, eax
  00110	0f 85 60 ff ff
	ff		 jne	 $LN4@Adjust_man

; 142  : 
; 143  :     // Extra paranoia on aligned allocation/deallocation; ensure _Ptr_container is
; 144  :     // in range [_Min_back_shift, _Non_user_size]
; 145  : #ifdef _DEBUG
; 146  :     constexpr uintptr_t _Min_back_shift = 2 * sizeof(void*);

  00116	48 c7 45 48 10
	00 00 00	 mov	 QWORD PTR _Min_back_shift$[rbp], 16

; 147  : #else // ^^^ _DEBUG ^^^ // vvv !_DEBUG vvv
; 148  :     constexpr uintptr_t _Min_back_shift = sizeof(void*);
; 149  : #endif // _DEBUG
; 150  :     const uintptr_t _Back_shift = reinterpret_cast<uintptr_t>(_Ptr) - _Ptr_container;

  0011e	48 8b 85 60 01
	00 00		 mov	 rax, QWORD PTR _Ptr$[rbp]
  00125	48 8b 4d 28	 mov	 rcx, QWORD PTR _Ptr_container$[rbp]
  00129	48 8b 00	 mov	 rax, QWORD PTR [rax]
  0012c	48 2b c1	 sub	 rax, rcx
  0012f	48 89 45 68	 mov	 QWORD PTR _Back_shift$[rbp], rax
$LN10@Adjust_man:

; 151  :     _STL_VERIFY(_Back_shift >= _Min_back_shift && _Back_shift <= _Non_user_size, "invalid argument");

  00133	48 83 7d 68 10	 cmp	 QWORD PTR _Back_shift$[rbp], 16
  00138	72 09		 jb	 SHORT $LN16@Adjust_man
  0013a	48 83 7d 68 2f	 cmp	 QWORD PTR _Back_shift$[rbp], 47 ; 0000002fH
  0013f	77 02		 ja	 SHORT $LN16@Adjust_man
  00141	eb 77		 jmp	 SHORT $LN17@Adjust_man
$LN16@Adjust_man:
$LN13@Adjust_man:
  00143	8b 05 00 00 00
	00		 mov	 eax, DWORD PTR ?__LINE__Var@?0??_Adjust_manually_vector_aligned@std@@YAXAEAPEAXAEA_K@Z@4JA
  00149	83 c0 13	 add	 eax, 19
  0014c	48 8d 0d 00 00
	00 00		 lea	 rcx, OFFSET FLAT:??_C@_0BB@FCMFBGOM@invalid?5argument@
  00153	48 89 4c 24 28	 mov	 QWORD PTR [rsp+40], rcx
  00158	48 8d 0d 00 00
	00 00		 lea	 rcx, OFFSET FLAT:??_C@_02DKCKIIND@?$CFs@
  0015f	48 89 4c 24 20	 mov	 QWORD PTR [rsp+32], rcx
  00164	45 33 c9	 xor	 r9d, r9d
  00167	44 8b c0	 mov	 r8d, eax
  0016a	48 8d 15 00 00
	00 00		 lea	 rdx, OFFSET FLAT:??_C@_0GI@JMEOMKJO@C?3?2Program?5Files?5?$CIx86?$CJ?2Microsof@
  00171	b9 02 00 00 00	 mov	 ecx, 2
  00176	ff 15 00 00 00
	00		 call	 QWORD PTR __imp__CrtDbgReport
  0017c	83 f8 01	 cmp	 eax, 1
  0017f	75 03		 jne	 SHORT $LN20@Adjust_man
  00181	cc		 int	 3
  00182	33 c0		 xor	 eax, eax
$LN20@Adjust_man:
  00184	8b 05 00 00 00
	00		 mov	 eax, DWORD PTR ?__LINE__Var@?0??_Adjust_manually_vector_aligned@std@@YAXAEAPEAXAEA_K@Z@4JA
  0018a	83 c0 13	 add	 eax, 19
  0018d	48 c7 44 24 20
	00 00 00 00	 mov	 QWORD PTR [rsp+32], 0
  00196	44 8b c8	 mov	 r9d, eax
  00199	4c 8d 05 00 00
	00 00		 lea	 r8, OFFSET FLAT:??_C@_1NA@FEEOBALC@?$AAC?$AA?3?$AA?2?$AAP?$AAr?$AAo?$AAg?$AAr?$AAa?$AAm?$AA?5?$AAF?$AAi?$AAl?$AAe@
  001a0	48 8d 15 00 00
	00 00		 lea	 rdx, OFFSET FLAT:??_C@_1EK@NIFDJFDG@?$AAs?$AAt?$AAd?$AA?3?$AA?3?$AA_?$AAA?$AAd?$AAj?$AAu?$AAs?$AAt?$AA_?$AAm?$AAa@
  001a7	48 8d 0d 00 00
	00 00		 lea	 rcx, OFFSET FLAT:??_C@_1CG@JNLFBNGN@?$AA?$CC?$AAi?$AAn?$AAv?$AAa?$AAl?$AAi?$AAd?$AA?5?$AAa?$AAr?$AAg?$AAu?$AAm?$AAe@
  001ae	ff 15 00 00 00
	00		 call	 QWORD PTR __imp__invalid_parameter
  001b4	33 c0		 xor	 eax, eax
  001b6	85 c0		 test	 eax, eax
  001b8	75 89		 jne	 SHORT $LN13@Adjust_man
$LN17@Adjust_man:
  001ba	33 c0		 xor	 eax, eax
  001bc	85 c0		 test	 eax, eax
  001be	0f 85 6f ff ff
	ff		 jne	 $LN10@Adjust_man

; 152  :     _Ptr = reinterpret_cast<void*>(_Ptr_container);

  001c4	48 8b 85 60 01
	00 00		 mov	 rax, QWORD PTR _Ptr$[rbp]
  001cb	48 8b 4d 28	 mov	 rcx, QWORD PTR _Ptr_container$[rbp]
  001cf	48 89 08	 mov	 QWORD PTR [rax], rcx

; 153  : }

  001d2	48 8d a5 48 01
	00 00		 lea	 rsp, QWORD PTR [rbp+328]
  001d9	5f		 pop	 rdi
  001da	5d		 pop	 rbp
  001db	c3		 ret	 0
?_Adjust_manually_vector_aligned@std@@YAXAEAPEAXAEA_K@Z ENDP ; std::_Adjust_manually_vector_aligned
_TEXT	ENDS
; Function compile flags: /Odtp /RTCsu /ZI
; File C:\Program Files (x86)\Microsoft Visual Studio\2019\Community\VC\Tools\MSVC\14.27.29110\include\xmemory
;	COMDAT ?_Allocate@_Default_allocate_traits@std@@SAPEAX_K@Z
_TEXT	SEGMENT
_Bytes$ = 224
?_Allocate@_Default_allocate_traits@std@@SAPEAX_K@Z PROC ; std::_Default_allocate_traits::_Allocate, COMDAT

; 76   :     __declspec(allocator) static void* _Allocate(const size_t _Bytes) {

$LN3:
  00000	48 89 4c 24 08	 mov	 QWORD PTR [rsp+8], rcx
  00005	55		 push	 rbp
  00006	57		 push	 rdi
  00007	48 81 ec e8 00
	00 00		 sub	 rsp, 232		; 000000e8H
  0000e	48 8d 6c 24 20	 lea	 rbp, QWORD PTR [rsp+32]
  00013	48 8b fc	 mov	 rdi, rsp
  00016	b9 3a 00 00 00	 mov	 ecx, 58			; 0000003aH
  0001b	b8 cc cc cc cc	 mov	 eax, -858993460		; ccccccccH
  00020	f3 ab		 rep stosd
  00022	48 8b 8c 24 08
	01 00 00	 mov	 rcx, QWORD PTR [rsp+264]
  0002a	48 8d 0d 00 00
	00 00		 lea	 rcx, OFFSET FLAT:__A58979FC_xmemory
  00031	e8 00 00 00 00	 call	 __CheckForDebuggerJustMyCode

; 77   :         return ::operator new(_Bytes);

  00036	48 8b 8d e0 00
	00 00		 mov	 rcx, QWORD PTR _Bytes$[rbp]
  0003d	e8 00 00 00 00	 call	 ??2@YAPEAX_K@Z		; operator new

; 78   :     }

  00042	48 8d a5 c8 00
	00 00		 lea	 rsp, QWORD PTR [rbp+200]
  00049	5f		 pop	 rdi
  0004a	5d		 pop	 rbp
  0004b	c3		 ret	 0
?_Allocate@_Default_allocate_traits@std@@SAPEAX_K@Z ENDP ; std::_Default_allocate_traits::_Allocate
_TEXT	ENDS
; Function compile flags: /Odtp /RTCsu /ZI
; File C:\Program Files (x86)\Microsoft Visual Studio\2019\Community\VC\Tools\MSVC\14.27.29110\include\limits
;	COMDAT ?max@?$numeric_limits@_J@std@@SA_JXZ
_TEXT	SEGMENT
?max@?$numeric_limits@_J@std@@SA_JXZ PROC		; std::numeric_limits<__int64>::max, COMDAT

; 645  :     _NODISCARD static constexpr long long(max)() noexcept {

$LN3:
  00000	40 55		 push	 rbp
  00002	57		 push	 rdi
  00003	48 81 ec e8 00
	00 00		 sub	 rsp, 232		; 000000e8H
  0000a	48 8d 6c 24 20	 lea	 rbp, QWORD PTR [rsp+32]
  0000f	48 8b fc	 mov	 rdi, rsp
  00012	b9 3a 00 00 00	 mov	 ecx, 58			; 0000003aH
  00017	b8 cc cc cc cc	 mov	 eax, -858993460		; ccccccccH
  0001c	f3 ab		 rep stosd
  0001e	48 8d 0d 00 00
	00 00		 lea	 rcx, OFFSET FLAT:__F2870A2C_limits
  00025	e8 00 00 00 00	 call	 __CheckForDebuggerJustMyCode

; 646  :         return LLONG_MAX;

  0002a	48 b8 ff ff ff
	ff ff ff ff 7f	 mov	 rax, 9223372036854775807 ; 7fffffffffffffffH

; 647  :     }

  00034	48 8d a5 c8 00
	00 00		 lea	 rsp, QWORD PTR [rbp+200]
  0003b	5f		 pop	 rdi
  0003c	5d		 pop	 rbp
  0003d	c3		 ret	 0
?max@?$numeric_limits@_J@std@@SA_JXZ ENDP		; std::numeric_limits<__int64>::max
_TEXT	ENDS
; Function compile flags: /Odtp /RTCsu /ZI
; File C:\Program Files (x86)\Microsoft Visual Studio\2019\Community\VC\Tools\MSVC\14.27.29110\include\exception
;	COMDAT ?_Throw_bad_array_new_length@std@@YAXXZ
_TEXT	SEGMENT
$T1 = 200
?_Throw_bad_array_new_length@std@@YAXXZ PROC		; std::_Throw_bad_array_new_length, COMDAT

; 320  : [[noreturn]] inline void _Throw_bad_array_new_length() {

$LN3:
  00000	40 55		 push	 rbp
  00002	57		 push	 rdi
  00003	48 81 ec 18 01
	00 00		 sub	 rsp, 280		; 00000118H
  0000a	48 8d 6c 24 20	 lea	 rbp, QWORD PTR [rsp+32]
  0000f	48 8b fc	 mov	 rdi, rsp
  00012	b9 46 00 00 00	 mov	 ecx, 70			; 00000046H
  00017	b8 cc cc cc cc	 mov	 eax, -858993460		; ccccccccH
  0001c	f3 ab		 rep stosd
  0001e	48 8d 0d 00 00
	00 00		 lea	 rcx, OFFSET FLAT:__E4152856_exception
  00025	e8 00 00 00 00	 call	 __CheckForDebuggerJustMyCode

; 321  :     _THROW(bad_array_new_length{});

  0002a	48 8d 8d c8 00
	00 00		 lea	 rcx, QWORD PTR $T1[rbp]
  00031	e8 00 00 00 00	 call	 ??0bad_array_new_length@std@@QEAA@XZ ; std::bad_array_new_length::bad_array_new_length
  00036	48 8d 15 00 00
	00 00		 lea	 rdx, OFFSET FLAT:_TI3?AVbad_array_new_length@std@@
  0003d	48 8d 8d c8 00
	00 00		 lea	 rcx, QWORD PTR $T1[rbp]
  00044	e8 00 00 00 00	 call	 _CxxThrowException
$LN2@Throw_bad_:

; 322  : }

  00049	48 8d a5 f8 00
	00 00		 lea	 rsp, QWORD PTR [rbp+248]
  00050	5f		 pop	 rdi
  00051	5d		 pop	 rbp
  00052	c3		 ret	 0
?_Throw_bad_array_new_length@std@@YAXXZ ENDP		; std::_Throw_bad_array_new_length
_TEXT	ENDS
; Function compile flags: /Odtp /RTCsu /ZI
;	COMDAT ??_Gbad_array_new_length@std@@UEAAPEAXI@Z
_TEXT	SEGMENT
this$ = 224
__flags$ = 232
??_Gbad_array_new_length@std@@UEAAPEAXI@Z PROC		; std::bad_array_new_length::`scalar deleting destructor', COMDAT
$LN4:
  00000	89 54 24 10	 mov	 DWORD PTR [rsp+16], edx
  00004	48 89 4c 24 08	 mov	 QWORD PTR [rsp+8], rcx
  00009	55		 push	 rbp
  0000a	57		 push	 rdi
  0000b	48 81 ec e8 00
	00 00		 sub	 rsp, 232		; 000000e8H
  00012	48 8d 6c 24 20	 lea	 rbp, QWORD PTR [rsp+32]
  00017	48 8b fc	 mov	 rdi, rsp
  0001a	b9 3a 00 00 00	 mov	 ecx, 58			; 0000003aH
  0001f	b8 cc cc cc cc	 mov	 eax, -858993460		; ccccccccH
  00024	f3 ab		 rep stosd
  00026	48 8b 8c 24 08
	01 00 00	 mov	 rcx, QWORD PTR [rsp+264]
  0002e	48 8b 8d e0 00
	00 00		 mov	 rcx, QWORD PTR this$[rbp]
  00035	e8 00 00 00 00	 call	 ??1bad_array_new_length@std@@UEAA@XZ
  0003a	8b 85 e8 00 00
	00		 mov	 eax, DWORD PTR __flags$[rbp]
  00040	83 e0 01	 and	 eax, 1
  00043	85 c0		 test	 eax, eax
  00045	74 11		 je	 SHORT $LN2@scalar
  00047	ba 18 00 00 00	 mov	 edx, 24
  0004c	48 8b 8d e0 00
	00 00		 mov	 rcx, QWORD PTR this$[rbp]
  00053	e8 00 00 00 00	 call	 ??3@YAXPEAX_K@Z		; operator delete
$LN2@scalar:
  00058	48 8b 85 e0 00
	00 00		 mov	 rax, QWORD PTR this$[rbp]
  0005f	48 8d a5 c8 00
	00 00		 lea	 rsp, QWORD PTR [rbp+200]
  00066	5f		 pop	 rdi
  00067	5d		 pop	 rbp
  00068	c3		 ret	 0
??_Gbad_array_new_length@std@@UEAAPEAXI@Z ENDP		; std::bad_array_new_length::`scalar deleting destructor'
_TEXT	ENDS
; Function compile flags: /Odtp /RTCsu /ZI
;	COMDAT ??0bad_array_new_length@std@@QEAA@AEBV01@@Z
_TEXT	SEGMENT
this$ = 224
__that$ = 232
??0bad_array_new_length@std@@QEAA@AEBV01@@Z PROC	; std::bad_array_new_length::bad_array_new_length, COMDAT
$LN3:
  00000	48 89 54 24 10	 mov	 QWORD PTR [rsp+16], rdx
  00005	48 89 4c 24 08	 mov	 QWORD PTR [rsp+8], rcx
  0000a	55		 push	 rbp
  0000b	57		 push	 rdi
  0000c	48 81 ec e8 00
	00 00		 sub	 rsp, 232		; 000000e8H
  00013	48 8d 6c 24 20	 lea	 rbp, QWORD PTR [rsp+32]
  00018	48 8b fc	 mov	 rdi, rsp
  0001b	b9 3a 00 00 00	 mov	 ecx, 58			; 0000003aH
  00020	b8 cc cc cc cc	 mov	 eax, -858993460		; ccccccccH
  00025	f3 ab		 rep stosd
  00027	48 8b 8c 24 08
	01 00 00	 mov	 rcx, QWORD PTR [rsp+264]
  0002f	48 8b 95 e8 00
	00 00		 mov	 rdx, QWORD PTR __that$[rbp]
  00036	48 8b 8d e0 00
	00 00		 mov	 rcx, QWORD PTR this$[rbp]
  0003d	e8 00 00 00 00	 call	 ??0bad_alloc@std@@QEAA@AEBV01@@Z
  00042	48 8b 85 e0 00
	00 00		 mov	 rax, QWORD PTR this$[rbp]
  00049	48 8d 0d 00 00
	00 00		 lea	 rcx, OFFSET FLAT:??_7bad_array_new_length@std@@6B@
  00050	48 89 08	 mov	 QWORD PTR [rax], rcx
  00053	48 8b 85 e0 00
	00 00		 mov	 rax, QWORD PTR this$[rbp]
  0005a	48 8d a5 c8 00
	00 00		 lea	 rsp, QWORD PTR [rbp+200]
  00061	5f		 pop	 rdi
  00062	5d		 pop	 rbp
  00063	c3		 ret	 0
??0bad_array_new_length@std@@QEAA@AEBV01@@Z ENDP	; std::bad_array_new_length::bad_array_new_length
_TEXT	ENDS
; Function compile flags: /Odtp /RTCsu /ZI
;	COMDAT ??1bad_array_new_length@std@@UEAA@XZ
_TEXT	SEGMENT
this$ = 224
??1bad_array_new_length@std@@UEAA@XZ PROC		; std::bad_array_new_length::~bad_array_new_length, COMDAT
$LN3:
  00000	48 89 4c 24 08	 mov	 QWORD PTR [rsp+8], rcx
  00005	55		 push	 rbp
  00006	57		 push	 rdi
  00007	48 81 ec e8 00
	00 00		 sub	 rsp, 232		; 000000e8H
  0000e	48 8d 6c 24 20	 lea	 rbp, QWORD PTR [rsp+32]
  00013	48 8b fc	 mov	 rdi, rsp
  00016	b9 3a 00 00 00	 mov	 ecx, 58			; 0000003aH
  0001b	b8 cc cc cc cc	 mov	 eax, -858993460		; ccccccccH
  00020	f3 ab		 rep stosd
  00022	48 8b 8c 24 08
	01 00 00	 mov	 rcx, QWORD PTR [rsp+264]
  0002a	48 8b 8d e0 00
	00 00		 mov	 rcx, QWORD PTR this$[rbp]
  00031	e8 00 00 00 00	 call	 ??1bad_alloc@std@@UEAA@XZ
  00036	48 8d a5 c8 00
	00 00		 lea	 rsp, QWORD PTR [rbp+200]
  0003d	5f		 pop	 rdi
  0003e	5d		 pop	 rbp
  0003f	c3		 ret	 0
??1bad_array_new_length@std@@UEAA@XZ ENDP		; std::bad_array_new_length::~bad_array_new_length
_TEXT	ENDS
; Function compile flags: /Odtp /RTCsu /ZI
; File C:\Program Files (x86)\Microsoft Visual Studio\2019\Community\VC\Tools\MSVC\14.27.29110\include\vcruntime_exception.h
;	COMDAT ??0bad_array_new_length@std@@QEAA@XZ
_TEXT	SEGMENT
this$ = 224
??0bad_array_new_length@std@@QEAA@XZ PROC		; std::bad_array_new_length::bad_array_new_length, COMDAT

; 141  :     {

$LN3:
  00000	48 89 4c 24 08	 mov	 QWORD PTR [rsp+8], rcx
  00005	55		 push	 rbp
  00006	57		 push	 rdi
  00007	48 81 ec e8 00
	00 00		 sub	 rsp, 232		; 000000e8H
  0000e	48 8d 6c 24 20	 lea	 rbp, QWORD PTR [rsp+32]
  00013	48 8b fc	 mov	 rdi, rsp
  00016	b9 3a 00 00 00	 mov	 ecx, 58			; 0000003aH
  0001b	b8 cc cc cc cc	 mov	 eax, -858993460		; ccccccccH
  00020	f3 ab		 rep stosd
  00022	48 8b 8c 24 08
	01 00 00	 mov	 rcx, QWORD PTR [rsp+264]
  0002a	48 8d 0d 00 00
	00 00		 lea	 rcx, OFFSET FLAT:__E75714E4_vcruntime_exception@h
  00031	e8 00 00 00 00	 call	 __CheckForDebuggerJustMyCode

; 140  :         : bad_alloc("bad array new length")

  00036	48 8d 15 00 00
	00 00		 lea	 rdx, OFFSET FLAT:??_C@_0BF@KINCDENJ@bad?5array?5new?5length@
  0003d	48 8b 8d e0 00
	00 00		 mov	 rcx, QWORD PTR this$[rbp]
  00044	e8 00 00 00 00	 call	 ??0bad_alloc@std@@AEAA@QEBD@Z ; std::bad_alloc::bad_alloc

; 141  :     {

  00049	48 8b 85 e0 00
	00 00		 mov	 rax, QWORD PTR this$[rbp]
  00050	48 8d 0d 00 00
	00 00		 lea	 rcx, OFFSET FLAT:??_7bad_array_new_length@std@@6B@
  00057	48 89 08	 mov	 QWORD PTR [rax], rcx

; 142  :     }

  0005a	48 8b 85 e0 00
	00 00		 mov	 rax, QWORD PTR this$[rbp]
  00061	48 8d a5 c8 00
	00 00		 lea	 rsp, QWORD PTR [rbp+200]
  00068	5f		 pop	 rdi
  00069	5d		 pop	 rbp
  0006a	c3		 ret	 0
??0bad_array_new_length@std@@QEAA@XZ ENDP		; std::bad_array_new_length::bad_array_new_length
_TEXT	ENDS
; Function compile flags: /Odtp /RTCsu /ZI
;	COMDAT ??_Gbad_alloc@std@@UEAAPEAXI@Z
_TEXT	SEGMENT
this$ = 224
__flags$ = 232
??_Gbad_alloc@std@@UEAAPEAXI@Z PROC			; std::bad_alloc::`scalar deleting destructor', COMDAT
$LN4:
  00000	89 54 24 10	 mov	 DWORD PTR [rsp+16], edx
  00004	48 89 4c 24 08	 mov	 QWORD PTR [rsp+8], rcx
  00009	55		 push	 rbp
  0000a	57		 push	 rdi
  0000b	48 81 ec e8 00
	00 00		 sub	 rsp, 232		; 000000e8H
  00012	48 8d 6c 24 20	 lea	 rbp, QWORD PTR [rsp+32]
  00017	48 8b fc	 mov	 rdi, rsp
  0001a	b9 3a 00 00 00	 mov	 ecx, 58			; 0000003aH
  0001f	b8 cc cc cc cc	 mov	 eax, -858993460		; ccccccccH
  00024	f3 ab		 rep stosd
  00026	48 8b 8c 24 08
	01 00 00	 mov	 rcx, QWORD PTR [rsp+264]
  0002e	48 8b 8d e0 00
	00 00		 mov	 rcx, QWORD PTR this$[rbp]
  00035	e8 00 00 00 00	 call	 ??1bad_alloc@std@@UEAA@XZ
  0003a	8b 85 e8 00 00
	00		 mov	 eax, DWORD PTR __flags$[rbp]
  00040	83 e0 01	 and	 eax, 1
  00043	85 c0		 test	 eax, eax
  00045	74 11		 je	 SHORT $LN2@scalar
  00047	ba 18 00 00 00	 mov	 edx, 24
  0004c	48 8b 8d e0 00
	00 00		 mov	 rcx, QWORD PTR this$[rbp]
  00053	e8 00 00 00 00	 call	 ??3@YAXPEAX_K@Z		; operator delete
$LN2@scalar:
  00058	48 8b 85 e0 00
	00 00		 mov	 rax, QWORD PTR this$[rbp]
  0005f	48 8d a5 c8 00
	00 00		 lea	 rsp, QWORD PTR [rbp+200]
  00066	5f		 pop	 rdi
  00067	5d		 pop	 rbp
  00068	c3		 ret	 0
??_Gbad_alloc@std@@UEAAPEAXI@Z ENDP			; std::bad_alloc::`scalar deleting destructor'
_TEXT	ENDS
; Function compile flags: /Odtp /RTCsu /ZI
;	COMDAT ??0bad_alloc@std@@QEAA@AEBV01@@Z
_TEXT	SEGMENT
this$ = 224
__that$ = 232
??0bad_alloc@std@@QEAA@AEBV01@@Z PROC			; std::bad_alloc::bad_alloc, COMDAT
$LN3:
  00000	48 89 54 24 10	 mov	 QWORD PTR [rsp+16], rdx
  00005	48 89 4c 24 08	 mov	 QWORD PTR [rsp+8], rcx
  0000a	55		 push	 rbp
  0000b	57		 push	 rdi
  0000c	48 81 ec e8 00
	00 00		 sub	 rsp, 232		; 000000e8H
  00013	48 8d 6c 24 20	 lea	 rbp, QWORD PTR [rsp+32]
  00018	48 8b fc	 mov	 rdi, rsp
  0001b	b9 3a 00 00 00	 mov	 ecx, 58			; 0000003aH
  00020	b8 cc cc cc cc	 mov	 eax, -858993460		; ccccccccH
  00025	f3 ab		 rep stosd
  00027	48 8b 8c 24 08
	01 00 00	 mov	 rcx, QWORD PTR [rsp+264]
  0002f	48 8b 95 e8 00
	00 00		 mov	 rdx, QWORD PTR __that$[rbp]
  00036	48 8b 8d e0 00
	00 00		 mov	 rcx, QWORD PTR this$[rbp]
  0003d	e8 00 00 00 00	 call	 ??0exception@std@@QEAA@AEBV01@@Z ; std::exception::exception
  00042	48 8b 85 e0 00
	00 00		 mov	 rax, QWORD PTR this$[rbp]
  00049	48 8d 0d 00 00
	00 00		 lea	 rcx, OFFSET FLAT:??_7bad_alloc@std@@6B@
  00050	48 89 08	 mov	 QWORD PTR [rax], rcx
  00053	48 8b 85 e0 00
	00 00		 mov	 rax, QWORD PTR this$[rbp]
  0005a	48 8d a5 c8 00
	00 00		 lea	 rsp, QWORD PTR [rbp+200]
  00061	5f		 pop	 rdi
  00062	5d		 pop	 rbp
  00063	c3		 ret	 0
??0bad_alloc@std@@QEAA@AEBV01@@Z ENDP			; std::bad_alloc::bad_alloc
_TEXT	ENDS
; Function compile flags: /Odtp /RTCsu /ZI
;	COMDAT ??1bad_alloc@std@@UEAA@XZ
_TEXT	SEGMENT
this$ = 224
??1bad_alloc@std@@UEAA@XZ PROC				; std::bad_alloc::~bad_alloc, COMDAT
$LN3:
  00000	48 89 4c 24 08	 mov	 QWORD PTR [rsp+8], rcx
  00005	55		 push	 rbp
  00006	57		 push	 rdi
  00007	48 81 ec e8 00
	00 00		 sub	 rsp, 232		; 000000e8H
  0000e	48 8d 6c 24 20	 lea	 rbp, QWORD PTR [rsp+32]
  00013	48 8b fc	 mov	 rdi, rsp
  00016	b9 3a 00 00 00	 mov	 ecx, 58			; 0000003aH
  0001b	b8 cc cc cc cc	 mov	 eax, -858993460		; ccccccccH
  00020	f3 ab		 rep stosd
  00022	48 8b 8c 24 08
	01 00 00	 mov	 rcx, QWORD PTR [rsp+264]
  0002a	48 8b 8d e0 00
	00 00		 mov	 rcx, QWORD PTR this$[rbp]
  00031	e8 00 00 00 00	 call	 ??1exception@std@@UEAA@XZ ; std::exception::~exception
  00036	48 8d a5 c8 00
	00 00		 lea	 rsp, QWORD PTR [rbp+200]
  0003d	5f		 pop	 rdi
  0003e	5d		 pop	 rbp
  0003f	c3		 ret	 0
??1bad_alloc@std@@UEAA@XZ ENDP				; std::bad_alloc::~bad_alloc
_TEXT	ENDS
; Function compile flags: /Odtp /RTCsu /ZI
; File C:\Program Files (x86)\Microsoft Visual Studio\2019\Community\VC\Tools\MSVC\14.27.29110\include\vcruntime_exception.h
;	COMDAT ??0bad_alloc@std@@AEAA@QEBD@Z
_TEXT	SEGMENT
this$ = 224
_Message$ = 232
??0bad_alloc@std@@AEAA@QEBD@Z PROC			; std::bad_alloc::bad_alloc, COMDAT

; 130  :     {

$LN3:
  00000	48 89 54 24 10	 mov	 QWORD PTR [rsp+16], rdx
  00005	48 89 4c 24 08	 mov	 QWORD PTR [rsp+8], rcx
  0000a	55		 push	 rbp
  0000b	57		 push	 rdi
  0000c	48 81 ec e8 00
	00 00		 sub	 rsp, 232		; 000000e8H
  00013	48 8d 6c 24 20	 lea	 rbp, QWORD PTR [rsp+32]
  00018	48 8b fc	 mov	 rdi, rsp
  0001b	b9 3a 00 00 00	 mov	 ecx, 58			; 0000003aH
  00020	b8 cc cc cc cc	 mov	 eax, -858993460		; ccccccccH
  00025	f3 ab		 rep stosd
  00027	48 8b 8c 24 08
	01 00 00	 mov	 rcx, QWORD PTR [rsp+264]
  0002f	48 8d 0d 00 00
	00 00		 lea	 rcx, OFFSET FLAT:__E75714E4_vcruntime_exception@h
  00036	e8 00 00 00 00	 call	 __CheckForDebuggerJustMyCode

; 129  :         : exception(_Message, 1)

  0003b	41 b8 01 00 00
	00		 mov	 r8d, 1
  00041	48 8b 95 e8 00
	00 00		 mov	 rdx, QWORD PTR _Message$[rbp]
  00048	48 8b 8d e0 00
	00 00		 mov	 rcx, QWORD PTR this$[rbp]
  0004f	e8 00 00 00 00	 call	 ??0exception@std@@QEAA@QEBDH@Z ; std::exception::exception

; 130  :     {

  00054	48 8b 85 e0 00
	00 00		 mov	 rax, QWORD PTR this$[rbp]
  0005b	48 8d 0d 00 00
	00 00		 lea	 rcx, OFFSET FLAT:??_7bad_alloc@std@@6B@
  00062	48 89 08	 mov	 QWORD PTR [rax], rcx

; 131  :     }

  00065	48 8b 85 e0 00
	00 00		 mov	 rax, QWORD PTR this$[rbp]
  0006c	48 8d a5 c8 00
	00 00		 lea	 rsp, QWORD PTR [rbp+200]
  00073	5f		 pop	 rdi
  00074	5d		 pop	 rbp
  00075	c3		 ret	 0
??0bad_alloc@std@@AEAA@QEBD@Z ENDP			; std::bad_alloc::bad_alloc
_TEXT	ENDS
; Function compile flags: /Odtp /RTCsu /ZI
;	COMDAT ??_Gexception@std@@UEAAPEAXI@Z
_TEXT	SEGMENT
this$ = 224
__flags$ = 232
??_Gexception@std@@UEAAPEAXI@Z PROC			; std::exception::`scalar deleting destructor', COMDAT
$LN4:
  00000	89 54 24 10	 mov	 DWORD PTR [rsp+16], edx
  00004	48 89 4c 24 08	 mov	 QWORD PTR [rsp+8], rcx
  00009	55		 push	 rbp
  0000a	57		 push	 rdi
  0000b	48 81 ec e8 00
	00 00		 sub	 rsp, 232		; 000000e8H
  00012	48 8d 6c 24 20	 lea	 rbp, QWORD PTR [rsp+32]
  00017	48 8b fc	 mov	 rdi, rsp
  0001a	b9 3a 00 00 00	 mov	 ecx, 58			; 0000003aH
  0001f	b8 cc cc cc cc	 mov	 eax, -858993460		; ccccccccH
  00024	f3 ab		 rep stosd
  00026	48 8b 8c 24 08
	01 00 00	 mov	 rcx, QWORD PTR [rsp+264]
  0002e	48 8b 8d e0 00
	00 00		 mov	 rcx, QWORD PTR this$[rbp]
  00035	e8 00 00 00 00	 call	 ??1exception@std@@UEAA@XZ ; std::exception::~exception
  0003a	8b 85 e8 00 00
	00		 mov	 eax, DWORD PTR __flags$[rbp]
  00040	83 e0 01	 and	 eax, 1
  00043	85 c0		 test	 eax, eax
  00045	74 11		 je	 SHORT $LN2@scalar
  00047	ba 18 00 00 00	 mov	 edx, 24
  0004c	48 8b 8d e0 00
	00 00		 mov	 rcx, QWORD PTR this$[rbp]
  00053	e8 00 00 00 00	 call	 ??3@YAXPEAX_K@Z		; operator delete
$LN2@scalar:
  00058	48 8b 85 e0 00
	00 00		 mov	 rax, QWORD PTR this$[rbp]
  0005f	48 8d a5 c8 00
	00 00		 lea	 rsp, QWORD PTR [rbp+200]
  00066	5f		 pop	 rdi
  00067	5d		 pop	 rbp
  00068	c3		 ret	 0
??_Gexception@std@@UEAAPEAXI@Z ENDP			; std::exception::`scalar deleting destructor'
_TEXT	ENDS
; Function compile flags: /Odtp /RTCsu /ZI
; File C:\Program Files (x86)\Microsoft Visual Studio\2019\Community\VC\Tools\MSVC\14.27.29110\include\vcruntime_exception.h
;	COMDAT ?what@exception@std@@UEBAPEBDXZ
_TEXT	SEGMENT
tv69 = 192
this$ = 240
?what@exception@std@@UEBAPEBDXZ PROC			; std::exception::what, COMDAT

; 94   :     {

$LN5:
  00000	48 89 4c 24 08	 mov	 QWORD PTR [rsp+8], rcx
  00005	55		 push	 rbp
  00006	57		 push	 rdi
  00007	48 81 ec f8 00
	00 00		 sub	 rsp, 248		; 000000f8H
  0000e	48 8d 6c 24 20	 lea	 rbp, QWORD PTR [rsp+32]
  00013	48 8b fc	 mov	 rdi, rsp
  00016	b9 3e 00 00 00	 mov	 ecx, 62			; 0000003eH
  0001b	b8 cc cc cc cc	 mov	 eax, -858993460		; ccccccccH
  00020	f3 ab		 rep stosd
  00022	48 8b 8c 24 18
	01 00 00	 mov	 rcx, QWORD PTR [rsp+280]
  0002a	48 8d 0d 00 00
	00 00		 lea	 rcx, OFFSET FLAT:__E75714E4_vcruntime_exception@h
  00031	e8 00 00 00 00	 call	 __CheckForDebuggerJustMyCode

; 95   :         return _Data._What ? _Data._What : "Unknown exception";

  00036	48 8b 85 f0 00
	00 00		 mov	 rax, QWORD PTR this$[rbp]
  0003d	48 83 78 08 00	 cmp	 QWORD PTR [rax+8], 0
  00042	74 14		 je	 SHORT $LN3@what
  00044	48 8b 85 f0 00
	00 00		 mov	 rax, QWORD PTR this$[rbp]
  0004b	48 8b 40 08	 mov	 rax, QWORD PTR [rax+8]
  0004f	48 89 85 c0 00
	00 00		 mov	 QWORD PTR tv69[rbp], rax
  00056	eb 0e		 jmp	 SHORT $LN4@what
$LN3@what:
  00058	48 8d 05 00 00
	00 00		 lea	 rax, OFFSET FLAT:??_C@_0BC@EOODALEL@Unknown?5exception@
  0005f	48 89 85 c0 00
	00 00		 mov	 QWORD PTR tv69[rbp], rax
$LN4@what:
  00066	48 8b 85 c0 00
	00 00		 mov	 rax, QWORD PTR tv69[rbp]

; 96   :     }

  0006d	48 8d a5 d8 00
	00 00		 lea	 rsp, QWORD PTR [rbp+216]
  00074	5f		 pop	 rdi
  00075	5d		 pop	 rbp
  00076	c3		 ret	 0
?what@exception@std@@UEBAPEBDXZ ENDP			; std::exception::what
_TEXT	ENDS
; Function compile flags: /Odtp /RTCsu /ZI
; File C:\Program Files (x86)\Microsoft Visual Studio\2019\Community\VC\Tools\MSVC\14.27.29110\include\vcruntime_exception.h
;	COMDAT ??1exception@std@@UEAA@XZ
_TEXT	SEGMENT
this$ = 224
??1exception@std@@UEAA@XZ PROC				; std::exception::~exception, COMDAT

; 89   :     {

$LN3:
  00000	48 89 4c 24 08	 mov	 QWORD PTR [rsp+8], rcx
  00005	55		 push	 rbp
  00006	57		 push	 rdi
  00007	48 81 ec e8 00
	00 00		 sub	 rsp, 232		; 000000e8H
  0000e	48 8d 6c 24 20	 lea	 rbp, QWORD PTR [rsp+32]
  00013	48 8b fc	 mov	 rdi, rsp
  00016	b9 3a 00 00 00	 mov	 ecx, 58			; 0000003aH
  0001b	b8 cc cc cc cc	 mov	 eax, -858993460		; ccccccccH
  00020	f3 ab		 rep stosd
  00022	48 8b 8c 24 08
	01 00 00	 mov	 rcx, QWORD PTR [rsp+264]
  0002a	48 8d 0d 00 00
	00 00		 lea	 rcx, OFFSET FLAT:__E75714E4_vcruntime_exception@h
  00031	e8 00 00 00 00	 call	 __CheckForDebuggerJustMyCode
  00036	48 8b 85 e0 00
	00 00		 mov	 rax, QWORD PTR this$[rbp]
  0003d	48 8d 0d 00 00
	00 00		 lea	 rcx, OFFSET FLAT:??_7exception@std@@6B@
  00044	48 89 08	 mov	 QWORD PTR [rax], rcx

; 90   :         __std_exception_destroy(&_Data);

  00047	48 8b 85 e0 00
	00 00		 mov	 rax, QWORD PTR this$[rbp]
  0004e	48 83 c0 08	 add	 rax, 8
  00052	48 8b c8	 mov	 rcx, rax
  00055	e8 00 00 00 00	 call	 __std_exception_destroy
  0005a	90		 npad	 1

; 91   :     }

  0005b	48 8d a5 c8 00
	00 00		 lea	 rsp, QWORD PTR [rbp+200]
  00062	5f		 pop	 rdi
  00063	5d		 pop	 rbp
  00064	c3		 ret	 0
??1exception@std@@UEAA@XZ ENDP				; std::exception::~exception
_TEXT	ENDS
; Function compile flags: /Odtp /RTCsu /ZI
; File C:\Program Files (x86)\Microsoft Visual Studio\2019\Community\VC\Tools\MSVC\14.27.29110\include\vcruntime_exception.h
;	COMDAT ??0exception@std@@QEAA@AEBV01@@Z
_TEXT	SEGMENT
this$ = 224
_Other$ = 232
??0exception@std@@QEAA@AEBV01@@Z PROC			; std::exception::exception, COMDAT

; 72   :     {

$LN3:
  00000	48 89 54 24 10	 mov	 QWORD PTR [rsp+16], rdx
  00005	48 89 4c 24 08	 mov	 QWORD PTR [rsp+8], rcx
  0000a	55		 push	 rbp
  0000b	57		 push	 rdi
  0000c	48 81 ec e8 00
	00 00		 sub	 rsp, 232		; 000000e8H
  00013	48 8d 6c 24 20	 lea	 rbp, QWORD PTR [rsp+32]
  00018	48 8b fc	 mov	 rdi, rsp
  0001b	b9 3a 00 00 00	 mov	 ecx, 58			; 0000003aH
  00020	b8 cc cc cc cc	 mov	 eax, -858993460		; ccccccccH
  00025	f3 ab		 rep stosd
  00027	48 8b 8c 24 08
	01 00 00	 mov	 rcx, QWORD PTR [rsp+264]
  0002f	48 8d 0d 00 00
	00 00		 lea	 rcx, OFFSET FLAT:__E75714E4_vcruntime_exception@h
  00036	e8 00 00 00 00	 call	 __CheckForDebuggerJustMyCode
  0003b	48 8b 85 e0 00
	00 00		 mov	 rax, QWORD PTR this$[rbp]
  00042	48 8d 0d 00 00
	00 00		 lea	 rcx, OFFSET FLAT:??_7exception@std@@6B@
  00049	48 89 08	 mov	 QWORD PTR [rax], rcx

; 71   :         : _Data()

  0004c	48 8b 85 e0 00
	00 00		 mov	 rax, QWORD PTR this$[rbp]
  00053	48 83 c0 08	 add	 rax, 8
  00057	48 8b f8	 mov	 rdi, rax
  0005a	33 c0		 xor	 eax, eax
  0005c	b9 10 00 00 00	 mov	 ecx, 16
  00061	f3 aa		 rep stosb

; 73   :         __std_exception_copy(&_Other._Data, &_Data);

  00063	48 8b 85 e0 00
	00 00		 mov	 rax, QWORD PTR this$[rbp]
  0006a	48 83 c0 08	 add	 rax, 8
  0006e	48 8b 8d e8 00
	00 00		 mov	 rcx, QWORD PTR _Other$[rbp]
  00075	48 83 c1 08	 add	 rcx, 8
  00079	48 8b d0	 mov	 rdx, rax
  0007c	e8 00 00 00 00	 call	 __std_exception_copy

; 74   :     }

  00081	48 8b 85 e0 00
	00 00		 mov	 rax, QWORD PTR this$[rbp]
  00088	48 8d a5 c8 00
	00 00		 lea	 rsp, QWORD PTR [rbp+200]
  0008f	5f		 pop	 rdi
  00090	5d		 pop	 rbp
  00091	c3		 ret	 0
??0exception@std@@QEAA@AEBV01@@Z ENDP			; std::exception::exception
_TEXT	ENDS
; Function compile flags: /Odtp /RTCsu /ZI
; File C:\Program Files (x86)\Microsoft Visual Studio\2019\Community\VC\Tools\MSVC\14.27.29110\include\vcruntime_exception.h
;	COMDAT ??0exception@std@@QEAA@QEBDH@Z
_TEXT	SEGMENT
this$ = 224
_Message$ = 232
__formal$ = 240
??0exception@std@@QEAA@QEBDH@Z PROC			; std::exception::exception, COMDAT

; 66   :     {

$LN3:
  00000	44 89 44 24 18	 mov	 DWORD PTR [rsp+24], r8d
  00005	48 89 54 24 10	 mov	 QWORD PTR [rsp+16], rdx
  0000a	48 89 4c 24 08	 mov	 QWORD PTR [rsp+8], rcx
  0000f	55		 push	 rbp
  00010	57		 push	 rdi
  00011	48 81 ec e8 00
	00 00		 sub	 rsp, 232		; 000000e8H
  00018	48 8d 6c 24 20	 lea	 rbp, QWORD PTR [rsp+32]
  0001d	48 8b fc	 mov	 rdi, rsp
  00020	b9 3a 00 00 00	 mov	 ecx, 58			; 0000003aH
  00025	b8 cc cc cc cc	 mov	 eax, -858993460		; ccccccccH
  0002a	f3 ab		 rep stosd
  0002c	48 8b 8c 24 08
	01 00 00	 mov	 rcx, QWORD PTR [rsp+264]
  00034	48 8d 0d 00 00
	00 00		 lea	 rcx, OFFSET FLAT:__E75714E4_vcruntime_exception@h
  0003b	e8 00 00 00 00	 call	 __CheckForDebuggerJustMyCode
  00040	48 8b 85 e0 00
	00 00		 mov	 rax, QWORD PTR this$[rbp]
  00047	48 8d 0d 00 00
	00 00		 lea	 rcx, OFFSET FLAT:??_7exception@std@@6B@
  0004e	48 89 08	 mov	 QWORD PTR [rax], rcx

; 65   :         : _Data()

  00051	48 8b 85 e0 00
	00 00		 mov	 rax, QWORD PTR this$[rbp]
  00058	48 83 c0 08	 add	 rax, 8
  0005c	48 8b f8	 mov	 rdi, rax
  0005f	33 c0		 xor	 eax, eax
  00061	b9 10 00 00 00	 mov	 ecx, 16
  00066	f3 aa		 rep stosb

; 67   :         _Data._What = _Message;

  00068	48 8b 85 e0 00
	00 00		 mov	 rax, QWORD PTR this$[rbp]
  0006f	48 8b 8d e8 00
	00 00		 mov	 rcx, QWORD PTR _Message$[rbp]
  00076	48 89 48 08	 mov	 QWORD PTR [rax+8], rcx

; 68   :     }

  0007a	48 8b 85 e0 00
	00 00		 mov	 rax, QWORD PTR this$[rbp]
  00081	48 8d a5 c8 00
	00 00		 lea	 rsp, QWORD PTR [rbp+200]
  00088	5f		 pop	 rdi
  00089	5d		 pop	 rbp
  0008a	c3		 ret	 0
??0exception@std@@QEAA@QEBDH@Z ENDP			; std::exception::exception
_TEXT	ENDS
; Function compile flags: /Odtp /RTCsu /ZI
; File C:\Program Files (x86)\Microsoft Visual Studio\2019\Community\VC\Tools\MSVC\14.27.29110\include\vcruntime_new.h
;	COMDAT ??2@YAPEAX_KPEAX@Z
_TEXT	SEGMENT
_Size$ = 224
_Where$ = 232
??2@YAPEAX_KPEAX@Z PROC					; operator new, COMDAT

; 167  :     {

$LN3:
  00000	48 89 54 24 10	 mov	 QWORD PTR [rsp+16], rdx
  00005	48 89 4c 24 08	 mov	 QWORD PTR [rsp+8], rcx
  0000a	55		 push	 rbp
  0000b	57		 push	 rdi
  0000c	48 81 ec e8 00
	00 00		 sub	 rsp, 232		; 000000e8H
  00013	48 8d 6c 24 20	 lea	 rbp, QWORD PTR [rsp+32]
  00018	48 8b fc	 mov	 rdi, rsp
  0001b	b9 3a 00 00 00	 mov	 ecx, 58			; 0000003aH
  00020	b8 cc cc cc cc	 mov	 eax, -858993460		; ccccccccH
  00025	f3 ab		 rep stosd
  00027	48 8b 8c 24 08
	01 00 00	 mov	 rcx, QWORD PTR [rsp+264]
  0002f	48 8d 0d 00 00
	00 00		 lea	 rcx, OFFSET FLAT:__8906660C_vcruntime_new@h
  00036	e8 00 00 00 00	 call	 __CheckForDebuggerJustMyCode

; 168  :         (void)_Size;
; 169  :         return _Where;

  0003b	48 8b 85 e8 00
	00 00		 mov	 rax, QWORD PTR _Where$[rbp]

; 170  :     }

  00042	48 8d a5 c8 00
	00 00		 lea	 rsp, QWORD PTR [rbp+200]
  00049	5f		 pop	 rdi
  0004a	5d		 pop	 rbp
  0004b	c3		 ret	 0
??2@YAPEAX_KPEAX@Z ENDP					; operator new
_TEXT	ENDS
; Function compile flags: /Odtp /RTCsu /ZI
; File A:\Server\Projects\w3schools Cpp_v2\w3schools_cpp_course\line_printing.cpp
;	COMDAT ?__empty_global_delete@@YAXPEAX_K@Z
_TEXT	SEGMENT
__formal$ = 224
__formal$ = 232
?__empty_global_delete@@YAXPEAX_K@Z PROC		; __empty_global_delete, COMDAT

$LN3:
  00000	48 89 54 24 10	 mov	 QWORD PTR [rsp+16], rdx
  00005	48 89 4c 24 08	 mov	 QWORD PTR [rsp+8], rcx
  0000a	55		 push	 rbp
  0000b	57		 push	 rdi
  0000c	48 81 ec e8 00
	00 00		 sub	 rsp, 232		; 000000e8H
  00013	48 8d 6c 24 20	 lea	 rbp, QWORD PTR [rsp+32]
  00018	48 8b fc	 mov	 rdi, rsp
  0001b	b9 3a 00 00 00	 mov	 ecx, 58			; 0000003aH
  00020	b8 cc cc cc cc	 mov	 eax, -858993460		; ccccccccH
  00025	f3 ab		 rep stosd
  00027	48 8b 8c 24 08
	01 00 00	 mov	 rcx, QWORD PTR [rsp+264]
  0002f	48 8d 0d 00 00
	00 00		 lea	 rcx, OFFSET FLAT:__2DA40AF6_line_printing@cpp
  00036	e8 00 00 00 00	 call	 __CheckForDebuggerJustMyCode
  0003b	48 8d a5 c8 00
	00 00		 lea	 rsp, QWORD PTR [rbp+200]
  00042	5f		 pop	 rdi
  00043	5d		 pop	 rbp
  00044	c3		 ret	 0
?__empty_global_delete@@YAXPEAX_K@Z ENDP		; __empty_global_delete
_TEXT	ENDS
; Function compile flags: /Odtp /RTCsu /ZI
; File A:\Server\Projects\w3schools Cpp_v2\w3schools_cpp_course\line_printing.cpp
;	COMDAT ?__empty_global_delete@@YAXPEAX@Z
_TEXT	SEGMENT
__formal$ = 224
?__empty_global_delete@@YAXPEAX@Z PROC			; __empty_global_delete, COMDAT

$LN3:
  00000	48 89 4c 24 08	 mov	 QWORD PTR [rsp+8], rcx
  00005	55		 push	 rbp
  00006	57		 push	 rdi
  00007	48 81 ec e8 00
	00 00		 sub	 rsp, 232		; 000000e8H
  0000e	48 8d 6c 24 20	 lea	 rbp, QWORD PTR [rsp+32]
  00013	48 8b fc	 mov	 rdi, rsp
  00016	b9 3a 00 00 00	 mov	 ecx, 58			; 0000003aH
  0001b	b8 cc cc cc cc	 mov	 eax, -858993460		; ccccccccH
  00020	f3 ab		 rep stosd
  00022	48 8b 8c 24 08
	01 00 00	 mov	 rcx, QWORD PTR [rsp+264]
  0002a	48 8d 0d 00 00
	00 00		 lea	 rcx, OFFSET FLAT:__2DA40AF6_line_printing@cpp
  00031	e8 00 00 00 00	 call	 __CheckForDebuggerJustMyCode
  00036	48 8d a5 c8 00
	00 00		 lea	 rsp, QWORD PTR [rbp+200]
  0003d	5f		 pop	 rdi
  0003e	5d		 pop	 rbp
  0003f	c3		 ret	 0
?__empty_global_delete@@YAXPEAX@Z ENDP			; __empty_global_delete
_TEXT	ENDS
END
