; Listing generated by Microsoft (R) Optimizing Compiler Version 19.27.29112.0 

include listing.inc

INCLUDELIB MSVCRTD
INCLUDELIB OLDNAMES

msvcjmc	SEGMENT
__8906660C_vcruntime_new@h DB 01H
__741AE07E_corecrt_math@h DB 01H
__B49664B7_stdlib@h DB 01H
__F8119FB4_cstdlib DB 01H
__0A4FAB91_cmath DB 01H
__A2143F22_corecrt_stdio_config@h DB 01H
__829E1958_corecrt_wstdio@h DB 01H
__6DFAE8B8_stdio@h DB 01H
__1FEB9909_corecrt_memcpy_s@h DB 01H
__A751F051_corecrt_memory@h DB 01H
__9200769A_corecrt_wstring@h DB 01H
__32E5F013_string@h DB 01H
__C6E16F6F_corecrt_wconio@h DB 01H
__6D390390_corecrt_wio@h DB 01H
__1157D6BA_corecrt_wtime@h DB 01H
__1DC1E279_stat@h DB 01H
__93DC0B45_wchar@h DB 01H
__85A9AA98_type_traits DB 01H
__4324C6B3_xutility DB 01H
__20BB4341_malloc@h DB 01H
__E75714E4_vcruntime_exception@h DB 01H
__E4152856_exception DB 01H
__F2870A2C_limits DB 01H
__A58979FC_xmemory DB 01H
__D15AFF60_xstring DB 01H
__6D5B120B_stdexcept DB 01H
__160863A3_xcall_once@h DB 01H
__99B256EE_atomic DB 01H
__A9557183_system_error DB 01H
__FB364CBD_vcruntime_typeinfo@h DB 01H
__33FB35AA_typeinfo DB 01H
__4E2906A2_memory DB 01H
__626C51AD_xfacet DB 01H
__B2D2BA86_ctype@h DB 01H
__2C72D662_xlocinfo DB 01H
__0E648B51_xlocale DB 01H
__1597A171_xiosbase DB 01H
__90E3ED46_xlocnum DB 01H
__165C22CB_ios DB 01H
__3AFA803E_string DB 01H
__A229332D_variables@cpp DB 01H
__7EA464AF_istream DB 01H
__1D745195_ostream DB 01H
__6FFBAAB7_streambuf DB 01H
__3E6EDFAA_iosfwd DB 01H
__CF1C1A3F_utility DB 01H
__528871F3_iterator DB 01H
__38038D2D_xstddef DB 01H
__EE19A480_xatomic@h DB 01H
msvcjmc	ENDS
PUBLIC	?__empty_global_delete@@YAXPEAX@Z		; __empty_global_delete
PUBLIC	?__empty_global_delete@@YAXPEAX_K@Z		; __empty_global_delete
PUBLIC	?main2@@YAHXZ					; main2
PUBLIC	__JustMyCode_Default
EXTRN	_RTC_InitBase:PROC
EXTRN	_RTC_Shutdown:PROC
EXTRN	__CheckForDebuggerJustMyCode:PROC
;	COMDAT pdata
pdata	SEGMENT
$pdata$?__empty_global_delete@@YAXPEAX@Z DD imagerel $LN3
	DD	imagerel $LN3+64
	DD	imagerel $unwind$?__empty_global_delete@@YAXPEAX@Z
pdata	ENDS
;	COMDAT pdata
pdata	SEGMENT
$pdata$?__empty_global_delete@@YAXPEAX_K@Z DD imagerel $LN3
	DD	imagerel $LN3+69
	DD	imagerel $unwind$?__empty_global_delete@@YAXPEAX_K@Z
pdata	ENDS
;	COMDAT pdata
pdata	SEGMENT
$pdata$?main2@@YAHXZ DD imagerel $LN3
	DD	imagerel $LN3+54
	DD	imagerel $unwind$?main2@@YAHXZ
pdata	ENDS
;	COMDAT rtc$TMZ
rtc$TMZ	SEGMENT
_RTC_Shutdown.rtc$TMZ DQ FLAT:_RTC_Shutdown
rtc$TMZ	ENDS
;	COMDAT rtc$IMZ
rtc$IMZ	SEGMENT
_RTC_InitBase.rtc$IMZ DQ FLAT:_RTC_InitBase
rtc$IMZ	ENDS
;	COMDAT xdata
xdata	SEGMENT
$unwind$?main2@@YAHXZ DD 025051e01H
	DD	010a230fH
	DD	07003001dH
	DD	05002H
xdata	ENDS
;	COMDAT xdata
xdata	SEGMENT
$unwind$?__empty_global_delete@@YAXPEAX_K@Z DD 025052f01H
	DD	01132318H
	DD	0700c001dH
	DD	0500bH
xdata	ENDS
;	COMDAT xdata
xdata	SEGMENT
$unwind$?__empty_global_delete@@YAXPEAX@Z DD 025052a01H
	DD	010e2313H
	DD	07007001dH
	DD	05006H
xdata	ENDS
; Function compile flags: /Odt
;	COMDAT __JustMyCode_Default
_TEXT	SEGMENT
__JustMyCode_Default PROC				; COMDAT
  00000	c2 00 00	 ret	 0
__JustMyCode_Default ENDP
_TEXT	ENDS
; Function compile flags: /Odtp /RTCsu /ZI
; File A:\Server\Projects\w3schools Cpp_v2\w3schools_cpp_course\variables.cpp
;	COMDAT ?main2@@YAHXZ
_TEXT	SEGMENT
?main2@@YAHXZ PROC					; main2, COMDAT

; 7    : int main2() {

$LN3:
  00000	40 55		 push	 rbp
  00002	57		 push	 rdi
  00003	48 81 ec e8 00
	00 00		 sub	 rsp, 232		; 000000e8H
  0000a	48 8d 6c 24 20	 lea	 rbp, QWORD PTR [rsp+32]
  0000f	48 8b fc	 mov	 rdi, rsp
  00012	b9 3a 00 00 00	 mov	 ecx, 58			; 0000003aH
  00017	b8 cc cc cc cc	 mov	 eax, -858993460		; ccccccccH
  0001c	f3 ab		 rep stosd
  0001e	48 8d 0d 00 00
	00 00		 lea	 rcx, OFFSET FLAT:__A229332D_variables@cpp
  00025	e8 00 00 00 00	 call	 __CheckForDebuggerJustMyCode

; 8    : 	return 0;

  0002a	33 c0		 xor	 eax, eax

; 9    : }

  0002c	48 8d a5 c8 00
	00 00		 lea	 rsp, QWORD PTR [rbp+200]
  00033	5f		 pop	 rdi
  00034	5d		 pop	 rbp
  00035	c3		 ret	 0
?main2@@YAHXZ ENDP					; main2
_TEXT	ENDS
; Function compile flags: /Odtp /RTCsu /ZI
; File A:\Server\Projects\w3schools Cpp_v2\w3schools_cpp_course\variables.cpp
;	COMDAT ?__empty_global_delete@@YAXPEAX_K@Z
_TEXT	SEGMENT
__formal$ = 224
__formal$ = 232
?__empty_global_delete@@YAXPEAX_K@Z PROC		; __empty_global_delete, COMDAT

$LN3:
  00000	48 89 54 24 10	 mov	 QWORD PTR [rsp+16], rdx
  00005	48 89 4c 24 08	 mov	 QWORD PTR [rsp+8], rcx
  0000a	55		 push	 rbp
  0000b	57		 push	 rdi
  0000c	48 81 ec e8 00
	00 00		 sub	 rsp, 232		; 000000e8H
  00013	48 8d 6c 24 20	 lea	 rbp, QWORD PTR [rsp+32]
  00018	48 8b fc	 mov	 rdi, rsp
  0001b	b9 3a 00 00 00	 mov	 ecx, 58			; 0000003aH
  00020	b8 cc cc cc cc	 mov	 eax, -858993460		; ccccccccH
  00025	f3 ab		 rep stosd
  00027	48 8b 8c 24 08
	01 00 00	 mov	 rcx, QWORD PTR [rsp+264]
  0002f	48 8d 0d 00 00
	00 00		 lea	 rcx, OFFSET FLAT:__A229332D_variables@cpp
  00036	e8 00 00 00 00	 call	 __CheckForDebuggerJustMyCode
  0003b	48 8d a5 c8 00
	00 00		 lea	 rsp, QWORD PTR [rbp+200]
  00042	5f		 pop	 rdi
  00043	5d		 pop	 rbp
  00044	c3		 ret	 0
?__empty_global_delete@@YAXPEAX_K@Z ENDP		; __empty_global_delete
_TEXT	ENDS
; Function compile flags: /Odtp /RTCsu /ZI
; File A:\Server\Projects\w3schools Cpp_v2\w3schools_cpp_course\variables.cpp
;	COMDAT ?__empty_global_delete@@YAXPEAX@Z
_TEXT	SEGMENT
__formal$ = 224
?__empty_global_delete@@YAXPEAX@Z PROC			; __empty_global_delete, COMDAT

$LN3:
  00000	48 89 4c 24 08	 mov	 QWORD PTR [rsp+8], rcx
  00005	55		 push	 rbp
  00006	57		 push	 rdi
  00007	48 81 ec e8 00
	00 00		 sub	 rsp, 232		; 000000e8H
  0000e	48 8d 6c 24 20	 lea	 rbp, QWORD PTR [rsp+32]
  00013	48 8b fc	 mov	 rdi, rsp
  00016	b9 3a 00 00 00	 mov	 ecx, 58			; 0000003aH
  0001b	b8 cc cc cc cc	 mov	 eax, -858993460		; ccccccccH
  00020	f3 ab		 rep stosd
  00022	48 8b 8c 24 08
	01 00 00	 mov	 rcx, QWORD PTR [rsp+264]
  0002a	48 8d 0d 00 00
	00 00		 lea	 rcx, OFFSET FLAT:__A229332D_variables@cpp
  00031	e8 00 00 00 00	 call	 __CheckForDebuggerJustMyCode
  00036	48 8d a5 c8 00
	00 00		 lea	 rsp, QWORD PTR [rbp+200]
  0003d	5f		 pop	 rdi
  0003e	5d		 pop	 rbp
  0003f	c3		 ret	 0
?__empty_global_delete@@YAXPEAX@Z ENDP			; __empty_global_delete
_TEXT	ENDS
END
